
build/sun50i_h6/release/bl31/bl31.elf:     file format elf64-littleaarch64
build/sun50i_h6/release/bl31/bl31.elf
architecture: aarch64, flags 0x00000112:
EXEC_P, HAS_SYMS, D_PAGED
start address 0x0000000000104000

Program Header:
    LOAD off    0x0000000000000000 vaddr 0x0000000000020000 paddr 0x0000000000020000 align 2**16
         filesz 0x00000000000000e8 memsz 0x0000000000006000 flags rw-
    LOAD off    0x0000000000004000 vaddr 0x0000000000104000 paddr 0x0000000000104000 align 2**16
         filesz 0x000000000000917d memsz 0x000000000000917d flags rwx
   STACK off    0x0000000000000000 vaddr 0x0000000000000000 paddr 0x0000000000000000 align 2**4
         filesz 0x0000000000000000 memsz 0x0000000000000000 flags rw-
private flags = 0x0:

Sections:
Idx Name          Size      VMA               LMA               File off  Algn
  0 .text         00008000  0000000000104000  0000000000104000  00004000  2**11
                  CONTENTS, ALLOC, LOAD, READONLY, CODE
  1 .rodata       00001000  000000000010c000  000000000010c000  0000c000  2**3
                  CONTENTS, ALLOC, LOAD, READONLY, DATA
  2 .data         0000017d  000000000010d000  000000000010d000  0000d000  2**3
                  CONTENTS, ALLOC, LOAD, DATA
  3 stacks        00001000  0000000000021000  0000000000021000  00001000  2**6
                  ALLOC
  4 .bss          00001400  0000000000022000  0000000000022000  00001000  2**10
                  ALLOC
  5 xlat_table    00001000  0000000000024000  0000000000024000  00001000  2**12
                  ALLOC
  6 coherent_ram  00001000  0000000000025000  0000000000025000  00001000  2**12
                  ALLOC
  7 .comment      0000002b  0000000000000000  0000000000000000  0000d17d  2**0
                  CONTENTS, READONLY
  8 .debug_frame  00000c18  0000000000000000  0000000000000000  0000d1a8  2**3
                  CONTENTS, READONLY, DEBUGGING, OCTETS
SYMBOL TABLE:
0000000000104000 l    d  .text	0000000000000000 .text
000000000010c000 l    d  .rodata	0000000000000000 .rodata
000000000010d000 l    d  .data	0000000000000000 .data
0000000000021000 l    d  stacks	0000000000000000 stacks
0000000000022000 l    d  .bss	0000000000000000 .bss
0000000000024000 l    d  xlat_table	0000000000000000 xlat_table
0000000000025000 l    d  coherent_ram	0000000000000000 coherent_ram
0000000000000000 l    d  .comment	0000000000000000 .comment
0000000000000000 l    d  .debug_frame	0000000000000000 .debug_frame
0000000000000000 l    df *ABS*	0000000000000000 bl31_entrypoint.o
0000000000000000 l    df *ABS*	0000000000000000 bl31_context_mgmt.c
0000000000000000 l    df *ABS*	0000000000000000 bl31_main.c
0000000000022980 l     O .bss	0000000000000008 bl32_init
000000000010d108 l     O .data	0000000000000004 next_image_type
000000000010c000 l     O .rodata	0000000000000010 psci_args.0
0000000000000000 l    df *ABS*	0000000000000000 interrupt_mgmt.c
0000000000022988 l     O .bss	0000000000000060 intr_type_descs
0000000000000000 l    df *ABS*	0000000000000000 runtime_svc.c
0000000000000000 l    df *ABS*	0000000000000000 common.c
0000000000000000 l    df *ABS*	0000000000000000 sunxi_msgbox.c
0000000000025000 l     O coherent_ram	0000000000000008 mhu_secure_message_lock
0000000000000000 l    df *ABS*	0000000000000000 css_scpi.c
00000000001048e8 l     F .text	000000000000005c scpi_secure_message_receive
0000000000000000 l    df *ABS*	0000000000000000 gic_common.c
0000000000000000 l    df *ABS*	0000000000000000 gicv2_helpers.c
0000000000000000 l    df *ABS*	0000000000000000 gicv2_main.c
00000000000229e8 l     O .bss	0000000000000008 driver_data
0000000000000000 l    df *ABS*	0000000000000000 delay_timer.c
00000000000229f0 l     O .bss	0000000000000008 timer_ops
0000000000000000 l    df *ABS*	0000000000000000 generic_delay_timer.c
00000000001050a8 l     F .text	000000000000000c get_timer_value
00000000000229f8 l     O .bss	0000000000000010 ops
0000000000000000 l    df *ABS*	0000000000000000 mi2cv.c
0000000000105118 l     F .text	0000000000000024 mentor_i2c_lost_arbitration
000000000010513c l     F .text	000000000000001c mentor_i2c_interrupt_clear
0000000000105158 l     F .text	00000000000000cc mentor_i2c_stop_bit_set
0000000000105224 l     F .text	0000000000000038 mentor_i2c_wait_interrupt
000000000010525c l     F .text	00000000000000cc mentor_i2c_data_transmit
0000000000105328 l     F .text	00000000000000c0 mentor_i2c_start_bit_set
00000000001053e8 l     F .text	00000000000000b4 mentor_i2c_address_set
0000000000022a08 l     O .bss	0000000000000008 base
000000000010c71c l     O .rodata	0000000000000018 __func__.0
000000000010c734 l     O .rodata	0000000000000018 __func__.1
000000000010c74c l     O .rodata	0000000000000017 __func__.2
000000000010c763 l     O .rodata	0000000000000019 __func__.3
000000000010c77c l     O .rodata	0000000000000019 __func__.4
0000000000000000 l    df *ABS*	0000000000000000 context_mgmt.c
0000000000000000 l    df *ABS*	0000000000000000 bakery_lock_coherent.c
0000000000000000 l    df *ABS*	0000000000000000 psci_common.c
0000000000105c9c l     F .text	0000000000000034 psci_set_req_local_pwr_state
0000000000022d54 l     O .bss	0000000000000008 psci_req_local_pwr_states
0000000000000000 l    df *ABS*	0000000000000000 psci_main.c
0000000000000000 l    df *ABS*	0000000000000000 psci_mem_protect.c
0000000000000000 l    df *ABS*	0000000000000000 psci_off.c
0000000000000000 l    df *ABS*	0000000000000000 psci_on.c
0000000000000000 l    df *ABS*	0000000000000000 psci_setup.c
0000000000022100 l     O .bss	0000000000000880 psci_ns_context
0000000000000000 l    df *ABS*	0000000000000000 psci_suspend.c
0000000000000000 l    df *ABS*	0000000000000000 psci_system_off.c
0000000000000000 l    df *ABS*	0000000000000000 sunxi_bl31_setup.c
0000000000022a60 l     O .bss	0000000000000058 bl32_image_ep_info
0000000000022ab8 l     O .bss	0000000000000058 bl33_image_ep_info
0000000000022b10 l     O .bss	0000000000000030 console
000000000010c198 l     O .rodata	0000000000000030 sunxi_gic_data
0000000000000000 l    df *ABS*	0000000000000000 sunxi_cpu_ops.c
000000000010d10c l     O .data	000000000000006c arisc_core_off
0000000000000000 l    df *ABS*	0000000000000000 sunxi_pm.c
00000000001077b4 l     F .text	0000000000000018 sunxi_cpu_standby
00000000001077cc l     F .text	0000000000000080 sunxi_validate_power_state
000000000010784c l     F .text	0000000000000014 sunxi_validate_ns_entrypoint
0000000000107860 l     F .text	0000000000000014 sunxi_get_sys_suspend_power_state
0000000000107874 l     F .text	0000000000000018 sunxi_pwr_down_wfi
000000000010788c l     F .text	0000000000000080 sunxi_get_node_hw_state
000000000010790c l     F .text	0000000000000048 sunxi_pwr_domain_on_finish
0000000000107954 l     F .text	0000000000000070 sunxi_system_reset
00000000001079c4 l     F .text	0000000000000068 sunxi_system_off
0000000000107a2c l     F .text	000000000000005c sunxi_pwr_domain_on
0000000000107a88 l     F .text	00000000000000a0 sunxi_pwr_domain_off
0000000000022d5c l     O .bss	0000000000000001 scpi_available
000000000010d000 l     O .data	00000000000000a8 sunxi_psci_ops
0000000000000000 l    df *ABS*	0000000000000000 sunxi_security.c
0000000000000000 l    df *ABS*	0000000000000000 sunxi_topology.c
000000000010c941 l     O .rodata	0000000000000003 plat_power_domain_tree_desc
0000000000000000 l    df *ABS*	0000000000000000 sunxi_power.c
0000000000022cd0 l     O .bss	0000000000000004 pmic
0000000000000000 l    df *ABS*	0000000000000000 plat_gicv2.c
0000000000000000 l    df *ABS*	0000000000000000 plat_psci_common.c
0000000000000000 l    df *ABS*	0000000000000000 arm_arch_svc_setup.c
0000000000107ee0 l     F .text	00000000000000f4 arm_arch_svc_smc_handler
000000000010cae0 l     O .rodata	0000000000000020 __svc_desc_arm_arch_svc
0000000000000000 l    df *ABS*	0000000000000000 std_svc_setup.c
0000000000107fd4 l     F .text	00000000000000a4 std_svc_smc_handler
0000000000108078 l     F .text	0000000000000024 std_svc_setup
000000000010cb00 l     O .rodata	0000000000000020 __svc_desc_std_svc
0000000000000000 l    df *ABS*	0000000000000000 bl_common.c
0000000000000000 l    df *ABS*	0000000000000000 tf_log.c
000000000010d178 l     O .data	0000000000000004 max_log_level
0000000000000000 l    df *ABS*	0000000000000000 multi_console.c
0000000000000000 l    df *ABS*	0000000000000000 plat_bl_common.c
0000000000000000 l    df *ABS*	0000000000000000 plat_log_common.c
000000000010c1c8 l     O .rodata	0000000000000028 plat_prefix_str
0000000000000000 l    df *ABS*	0000000000000000 plat_common.c
0000000000000000 l    df *ABS*	0000000000000000 xlat_tables_arch.c
0000000000000000 l    df *ABS*	0000000000000000 xlat_tables_context.c
0000000000022b60 l     O .bss	0000000000000168 tf_mmap
000000000010d0a8 l     O .data	0000000000000060 tf_xlat_ctx
0000000000024000 l     O xlat_table	0000000000001000 tf_xlat_tables
0000000000023000 l     O .bss	0000000000000400 tf_base_xlat_table
0000000000000000 l    df *ABS*	0000000000000000 xlat_tables_core.c
00000000001085f0 l     F .text	00000000000001e4 xlat_tables_map_region
0000000000000000 l    df *ABS*	0000000000000000 xlat_tables_utils.c
0000000000000000 l    df *ABS*	0000000000000000 sunxi_common.c
000000000010c1f0 l     O .rodata	00000000000000f0 sunxi_mmap
0000000000000000 l    df *ABS*	0000000000000000 crash_reporting.o
0000000000000000 l    df *ABS*	0000000000000000 ea_delegate.o
0000000000000008 l       *ABS*	0000000000000000 CPU_MIDR_SIZE
0000000000000008 l       *ABS*	0000000000000000 CPU_EXTRA1_FUNC_SIZE
0000000000000008 l       *ABS*	0000000000000000 CPU_EXTRA2_FUNC_SIZE
0000000000000008 l       *ABS*	0000000000000000 CPU_E_HANDLER_FUNC_SIZE
0000000000000008 l       *ABS*	0000000000000000 CPU_RESET_FUNC_SIZE
0000000000000010 l       *ABS*	0000000000000000 CPU_PWR_DWN_OPS_SIZE
0000000000000000 l       *ABS*	0000000000000000 CPU_ERRATA_FUNC_SIZE
0000000000000000 l       *ABS*	0000000000000000 CPU_ERRATA_LOCK_SIZE
0000000000000000 l       *ABS*	0000000000000000 CPU_ERRATA_PRINTED_SIZE
0000000000000000 l       *ABS*	0000000000000000 CPU_REG_DUMP_SIZE
0000000000000000 l       *ABS*	0000000000000000 CPU_MIDR
0000000000000008 l       *ABS*	0000000000000000 CPU_RESET_FUNC
0000000000000010 l       *ABS*	0000000000000000 CPU_EXTRA1_FUNC
0000000000000018 l       *ABS*	0000000000000000 CPU_EXTRA2_FUNC
0000000000000020 l       *ABS*	0000000000000000 CPU_E_HANDLER_FUNC
0000000000000028 l       *ABS*	0000000000000000 CPU_PWR_DWN_OPS
0000000000000038 l       *ABS*	0000000000000000 CPU_ERRATA_FUNC
0000000000000038 l       *ABS*	0000000000000000 CPU_ERRATA_LOCK
0000000000000038 l       *ABS*	0000000000000000 CPU_ERRATA_PRINTED
0000000000000038 l       *ABS*	0000000000000000 CPU_REG_DUMP
0000000000000038 l       *ABS*	0000000000000000 CPU_OPS_SIZE
0000000000108e64 l     F .text	0000000000000068 ea_proceed
0000000000108e5c l     F .text	0000000000000004 delegate_sync_ea
0000000000108e60 l     F .text	0000000000000004 delegate_async_ea
0000000000000000 l    df *ABS*	0000000000000000 runtime_exceptions.o
0000000000108ecc l       .text	0000000000000000 smc_handler32
0000000000108ed0 l       .text	0000000000000000 smc_handler64
000000000010b4d8 l       .text	0000000000000000 interrupt_exit_irq_aarch64
000000000010b558 l       .text	0000000000000000 interrupt_exit_fiq_aarch64
000000000010b6d8 l       .text	0000000000000000 interrupt_exit_irq_aarch32
000000000010b758 l       .text	0000000000000000 interrupt_exit_fiq_aarch32
0000000000108ecc l     F .text	0000000000000084 smc_handler
0000000000108f3c l       .text	0000000000000000 smc_prohibited
0000000000108f30 l       .text	0000000000000000 smc_unknown
0000000000000000 l    df *ABS*	0000000000000000 cortex_a53.o
0000000000000008 l       *ABS*	0000000000000000 CPU_MIDR_SIZE
0000000000000008 l       *ABS*	0000000000000000 CPU_EXTRA1_FUNC_SIZE
0000000000000008 l       *ABS*	0000000000000000 CPU_EXTRA2_FUNC_SIZE
0000000000000008 l       *ABS*	0000000000000000 CPU_E_HANDLER_FUNC_SIZE
0000000000000008 l       *ABS*	0000000000000000 CPU_RESET_FUNC_SIZE
0000000000000010 l       *ABS*	0000000000000000 CPU_PWR_DWN_OPS_SIZE
0000000000000000 l       *ABS*	0000000000000000 CPU_ERRATA_FUNC_SIZE
0000000000000000 l       *ABS*	0000000000000000 CPU_ERRATA_LOCK_SIZE
0000000000000000 l       *ABS*	0000000000000000 CPU_ERRATA_PRINTED_SIZE
0000000000000000 l       *ABS*	0000000000000000 CPU_REG_DUMP_SIZE
0000000000000000 l       *ABS*	0000000000000000 CPU_MIDR
0000000000000008 l       *ABS*	0000000000000000 CPU_RESET_FUNC
0000000000000010 l       *ABS*	0000000000000000 CPU_EXTRA1_FUNC
0000000000000018 l       *ABS*	0000000000000000 CPU_EXTRA2_FUNC
0000000000000020 l       *ABS*	0000000000000000 CPU_E_HANDLER_FUNC
0000000000000028 l       *ABS*	0000000000000000 CPU_PWR_DWN_OPS
0000000000000038 l       *ABS*	0000000000000000 CPU_ERRATA_FUNC
0000000000000038 l       *ABS*	0000000000000000 CPU_ERRATA_LOCK
0000000000000038 l       *ABS*	0000000000000000 CPU_ERRATA_PRINTED
0000000000000038 l       *ABS*	0000000000000000 CPU_REG_DUMP
0000000000000038 l       *ABS*	0000000000000000 CPU_OPS_SIZE
0000000000108f50 l     F .text	0000000000000014 cortex_a53_disable_dcache
0000000000108f64 l     F .text	0000000000000018 cortex_a53_disable_smp
0000000000108f7c l     F .text	000000000000001c a53_disable_non_temporal_hint
0000000000108f98 l     F .text	0000000000000008 check_errata_disable_non_temporal_hint
0000000000108fa0 l     F .text	000000000000001c errata_a53_855873_wa
0000000000108fbc l     F .text	0000000000000008 check_errata_855873
0000000000108fc4 l     F .text	0000000000000030 cortex_a53_reset_func
0000000000108ff4 l     F .text	0000000000000018 cortex_a53_core_pwr_dwn
000000000010900c l     F .text	0000000000000024 cortex_a53_cluster_pwr_dwn
0000000000000000 l    df *ABS*	0000000000000000 cpu_helpers.o
0000000000000008 l       *ABS*	0000000000000000 CPU_MIDR_SIZE
0000000000000008 l       *ABS*	0000000000000000 CPU_EXTRA1_FUNC_SIZE
0000000000000008 l       *ABS*	0000000000000000 CPU_EXTRA2_FUNC_SIZE
0000000000000008 l       *ABS*	0000000000000000 CPU_E_HANDLER_FUNC_SIZE
0000000000000008 l       *ABS*	0000000000000000 CPU_RESET_FUNC_SIZE
0000000000000010 l       *ABS*	0000000000000000 CPU_PWR_DWN_OPS_SIZE
0000000000000000 l       *ABS*	0000000000000000 CPU_ERRATA_FUNC_SIZE
0000000000000000 l       *ABS*	0000000000000000 CPU_ERRATA_LOCK_SIZE
0000000000000000 l       *ABS*	0000000000000000 CPU_ERRATA_PRINTED_SIZE
0000000000000000 l       *ABS*	0000000000000000 CPU_REG_DUMP_SIZE
0000000000000000 l       *ABS*	0000000000000000 CPU_MIDR
0000000000000008 l       *ABS*	0000000000000000 CPU_RESET_FUNC
0000000000000010 l       *ABS*	0000000000000000 CPU_EXTRA1_FUNC
0000000000000018 l       *ABS*	0000000000000000 CPU_EXTRA2_FUNC
0000000000000020 l       *ABS*	0000000000000000 CPU_E_HANDLER_FUNC
0000000000000028 l       *ABS*	0000000000000000 CPU_PWR_DWN_OPS
0000000000000038 l       *ABS*	0000000000000000 CPU_ERRATA_FUNC
0000000000000038 l       *ABS*	0000000000000000 CPU_ERRATA_LOCK
0000000000000038 l       *ABS*	0000000000000000 CPU_ERRATA_PRINTED
0000000000000038 l       *ABS*	0000000000000000 CPU_REG_DUMP
0000000000000038 l       *ABS*	0000000000000000 CPU_OPS_SIZE
00000000001090cc l       .text	0000000000000000 error_exit
0000000000000000 l    df *ABS*	0000000000000000 context.o
0000000000000000 l    df *ABS*	0000000000000000 cpu_data.o
0000000000000000 l    df *ABS*	0000000000000000 spinlock.o
0000000000109318 l       .text	0000000000000000 l1
000000000010931c l       .text	0000000000000000 l2
0000000000000000 l    df *ABS*	0000000000000000 psci_helpers.o
0000000000000000 l    df *ABS*	0000000000000000 platform_mp_stack.o
0000000000021000 l       stacks	0000000000000000 platform_normal_stacks
0000000000000006 l       *ABS*	0000000000000000 TZ_COUNT
0000000000000000 l    df *ABS*	0000000000000000 debug.o
000000000010cac1 l       .rodata	0000000000000000 panic_msg
00000000001093f4 l       .text	0000000000000000 panic_common
0000000000109418 l       .text	0000000000000000 _panic_handler
0000000000000000 l    df *ABS*	0000000000000000 cache_helpers.o
0000000000109454 l       .text	0000000000000000 exit_loop_civac
0000000000109440 l       .text	0000000000000000 loop_civac
000000000010948c l       .text	0000000000000000 exit_loop_cvac
0000000000109478 l       .text	0000000000000000 loop_cvac
00000000001094c4 l       .text	0000000000000000 exit_loop_ivac
00000000001094b0 l       .text	0000000000000000 loop_ivac
00000000001094c8 l     F .text	000000000000007c do_dcsw_op
0000000000109540 l       .text	0000000000000000 exit
0000000000109544 l       .text	0000000000000000 dcsw_loop_table
00000000001094dc l       .text	0000000000000000 loop1
0000000000109528 l       .text	0000000000000000 level_done
0000000000109544 l       .text	0000000000000000 loop2_isw
0000000000109548 l       .text	0000000000000000 loop3_isw
0000000000109564 l       .text	0000000000000000 loop2_cisw
0000000000109568 l       .text	0000000000000000 loop3_cisw
0000000000109584 l       .text	0000000000000000 loop2_csw
0000000000109588 l       .text	0000000000000000 loop3_csw
0000000000000000 l    df *ABS*	0000000000000000 misc_helpers.o
00000000001095cc l     F .text	00000000000000e8 zeromem_dczva
0000000000000000 l    df *ABS*	0000000000000000 platform_helpers.o
0000000000000000 l    df *ABS*	0000000000000000 16550_console.o
0000000000109738 l       .text	0000000000000000 init_fail
0000000000109794 l       .text	0000000000000000 register_fail
000000000010975c l       .text	0000000000000000 register_16550
00000000001097e8 l       .text	0000000000000000 no_char
0000000000000000 l    df *ABS*	0000000000000000 enable_mmu.o
0000000000000000 l    df *ABS*	0000000000000000 plat_helpers.o
0000000000000000 l    df *ABS*	0000000000000000 fdt.c
00000000001098ac l     F .text	0000000000000008 fdt32_to_cpu
0000000000000000 l    df *ABS*	0000000000000000 fdt_ro.c
0000000000109c74 l     F .text	0000000000000008 fdt32_to_cpu
0000000000109c7c l     F .text	0000000000000064 nextprop_
0000000000109ce0 l     F .text	0000000000000068 fdt_get_property_by_offset_
0000000000109fb0 l     F .text	00000000000000d4 fdt_get_property_namelen_
0000000000000000 l    df *ABS*	0000000000000000 memchr.c
0000000000000000 l    df *ABS*	0000000000000000 memcmp.c
0000000000000000 l    df *ABS*	0000000000000000 memcpy.c
0000000000000000 l    df *ABS*	0000000000000000 memmove.c
0000000000000000 l    df *ABS*	0000000000000000 memset.c
0000000000000000 l    df *ABS*	0000000000000000 printf.c
000000000010a374 l     F .text	00000000000000d0 unsigned_num_print
0000000000000000 l    df *ABS*	0000000000000000 putchar.c
0000000000000000 l    df *ABS*	0000000000000000 strlen.c
0000000000000000 l    df *ABS*	0000000000000000 strncmp.c
0000000000000000 l    df *ABS*	0000000000000000 strrchr.c
0000000000000000 l    df *ABS*	0000000000000000 axp805.c
0000000000000000 l    df *ABS*	0000000000000000 <stdin>
000000000010a834 g     F .text	000000000000002c putchar
0000000000105af0 g     F .text	00000000000000bc cm_prepare_el3_exit
0000000000105090 g     F .text	000000000000000c mdelay
000000000010993c g     F .text	000000000000007c fdt_offset_ptr
0000000000022d80 g       .bss	0000000000000000 __PMF_TIMESTAMP_START__
0000000000107e88  w    F .text	0000000000000030 plat_ic_get_pending_interrupt_type
0000000000105a54 g     F .text	000000000000007c cm_el1_sysregs_context_restore
000000000010669c g     F .text	0000000000000028 psci_migrate_info_up_cpu
000000000010e000 g       stacks	0000000000000000 __BL31_END__
0000000000108160 g     F .text	0000000000000034 console_register
0000000000106444 g     F .text	00000000000000ec psci_cpu_suspend
0000000000026000 g       coherent_ram	0000000000000000 __COHERENT_RAM_END__
0000000000109030 g     F .text	0000000000000020 reset_handler
0000000000109810 g     F .text	0000000000000008 console_16550_flush
000000000010b600 g     F .text	0000000000000000 sync_exception_aarch32
00000000001095c4 g     F .text	0000000000000008 zeromem
000000000010c364 g     O .rodata	000000000000000c version_string
000000000010cb58 g       .rodata	0000000000000000 __pubsub_psci_suspend_pwrdown_finish_end
0000000000106208 g     F .text	00000000000000f4 psci_validate_entry_point
0000000000108a08 g     F .text	000000000000003c mmap_add_ctx
000000000010809c g     F .text	0000000000000004 print_entry_point_info
00000000001041e0 g     F .text	000000000000000c cm_get_context
0000000000022b48 g     O .bss	0000000000000018 mmu_cfg_params
0000000000108b2c g     F .text	0000000000000004 xlat_tables_print
0000000000106190 g     F .text	0000000000000058 psci_release_pwr_domain_locks
0000000000107cc8 g     F .text	0000000000000034 plat_core_pos_by_mpidr
0000000000105cd0 g     F .text	0000000000000028 psci_validate_power_state
000000000010d000 g       .rodata	0000000000000000 __RW_START__
0000000000109798 g     F .text	0000000000000038 console_16550_core_putc
0000000000104f1c g     F .text	0000000000000020 gicv2_cpuif_enable
00000000001071a4 g     F .text	00000000000000a0 psci_cpu_suspend_finish
000000000010a084 g     F .text	000000000000006c fdt_getprop_namelen
0000000000109f40 g     F .text	0000000000000038 fdt_first_property_offset
00000000001097d0 g     F .text	0000000000000008 console_16550_putc
0000000000107560 g     F .text	0000000000000038 bl31_plat_get_next_image_ep_info
00000000001095a4 g     F .text	0000000000000010 dcsw_op_level1
00000000001093f4 g     F .text	000000000000002c do_panic
0000000000104fa4 g     F .text	0000000000000058 gicv2_distif_init
000000000010a324 g     F .text	0000000000000034 memmove
0000000000022cd4 g     O .bss	0000000000000080 rt_svc_descs_indices
0000000000104c20 g     F .text	0000000000000014 gicd_write_isenabler
0000000000107b28 g     F .text	0000000000000170 plat_setup_psci_ops
000000000010b200 g     F .text	0000000000000000 sync_exception_sp_elx
00000000001083d4 g     F .text	000000000000007c setup_mmu_cfg
000000000010b000 g     F .text	0000000000000000 sync_exception_sp_el0
0000000000109374 g     F .text	000000000000000c psci_power_down_wfi
00000000001065b0 g     F .text	0000000000000058 psci_affinity_info
0000000000025018 g     O coherent_ram	0000000000000008 arisc_lock
00000000001082bc  w    F .text	0000000000000030 plat_log_get_prefix
0000000000106608 g     F .text	000000000000007c psci_migrate
000000000010578c g     F .text	0000000000000118 i2c_write
000000000010c346 g     O .rodata	000000000000001e build_message
00000000001092b0 g     F .text	0000000000000034 el3_exit
0000000000106cc8 g     F .text	000000000000032c psci_setup
0000000000108494 g     F .text	000000000000003c init_xlat_tables
00000000001082ec  w    F .text	0000000000000008 bl31_plat_runtime_setup
000000000010d000 g       .data	0000000000000000 __DATA_START__
0000000000025008 g     O coherent_ram	0000000000000010 psci_locks
00000000001096b8  w    F .text	0000000000000004 plat_disable_acp
00000000001060f0 g     F .text	0000000000000034 psci_find_target_suspend_lvl
00000000001083b4 g     F .text	0000000000000014 xlat_arch_regime_get_xn_desc
0000000000107648 g     F .text	00000000000000f4 sunxi_cpu_on
0000000000104c9c g     F .text	000000000000000c gicd_set_isenabler
0000000000106cac g     F .text	000000000000001c psci_arch_setup
0000000000109108 g     F .text	0000000000000020 check_wa_cve_2017_5715
000000000010a220 g     F .text	0000000000000084 fdt_node_offset_by_compatible
0000000000104560 g     F .text	00000000000002a4 axp_setup_regulators
00000000001091d4 g     F .text	0000000000000074 save_gp_pmcr_pauth_regs
000000000010727c g     F .text	0000000000000038 psci_system_reset
0000000000104cfc g     F .text	000000000000009c gicv2_spis_configure_defaults
0000000000104ca8 g     F .text	0000000000000014 gicd_set_ipriorityr
000000000010a304 g     F .text	0000000000000020 memcpy
00000000001061e8 g     F .text	0000000000000020 psci_validate_mpidr
0000000000106530 g     F .text	0000000000000078 psci_system_suspend
000000000010b380 g     F .text	0000000000000000 serror_sp_elx
00000000001059fc g     F .text	000000000000002c cm_init_context_by_index
000000000010b080 g     F .text	0000000000000000 irq_sp_el0
00000000001095cc g     F .text	00000000000000e8 zero_normalmem
0000000000105e64 g     F .text	0000000000000048 psci_get_parent_pwr_domain_nodes
000000000010c018 g     O .rodata	0000000000000180 axp_regulators
00000000001082f4  w    F .text	0000000000000074 plat_ea_handler
0000000000107dd8 g     F .text	0000000000000074 sunxi_pmic_setup
0000000000105010 g     F .text	0000000000000018 gicv2_get_pending_interrupt_type
0000000000107244 g     F .text	0000000000000038 psci_system_off
00000000001098a8 g     F .text	0000000000000004 platform_mem_init
0000000000108d24 g     F .text	00000000000000a0 sunxi_execute_arisc_code
0000000000104c34 g     F .text	0000000000000014 gicd_write_icenabler
000000000010cb58 g       .rodata	0000000000000000 __pubsub_cm_exited_secure_world_end
0000000000108484 g     F .text	0000000000000010 mmap_add
0000000000104150 g     F .text	0000000000000090 bl31_warm_entrypoint
0000000000108b30 g     F .text	000000000000000c plat_get_syscnt_freq2
00000000001096bc  w    F .text	0000000000000008 plat_panic_handler
000000000010cae0 g       .rodata	0000000000000000 __RT_SVC_DESCS_START__
0000000000109e18 g     F .text	00000000000000e4 fdt_subnode_offset_namelen
0000000000022000 g       stacks	0000000000000000 __STACKS_END__
000000000010cb58 g       .rodata	0000000000000000 __pubsub_psci_suspend_pwrdown_start_end
0000000000109458 g     F .text	0000000000000038 clean_dcache_range
0000000000108bf0 g     F .text	0000000000000134 sunxi_init_platform_r_twi
0000000000109050 g     F .text	0000000000000024 prepare_cpu_pwr_dwn
00000000001044fc g     F .text	0000000000000054 axp_clrsetbits
0000000000109248 g     F .text	0000000000000068 restore_gp_pmcr_pauth_regs
00000000001062fc g     F .text	00000000000000c0 psci_warmboot_entrypoint
000000000010cb58 g       .rodata	0000000000000000 __pubsub_cm_exited_normal_world_start
000000000010939c  w    F .text	0000000000000010 plat_set_my_stack
0000000000104210 g     F .text	0000000000000028 cm_set_context_by_index
000000000010cb20 g       .rodata	0000000000000000 __RT_SVC_DESCS_END__
0000000000109ac0 g     F .text	0000000000000040 fdt_check_node_offset_
00000000001093c4 g     F .text	0000000000000030 asm_print_hex
00000000001073c4 g     F .text	0000000000000008 bl31_plat_arch_setup
00000000001042b8 g     F .text	0000000000000064 bl31_main
00000000001044a0 g     F .text	000000000000005c axp_check_id
0000000000022a10 g     O .bss	0000000000000040 psci_cpu_pd_nodes
00000000001093ac g     F .text	0000000000000018 asm_print_str
0000000000107e4c g     F .text	000000000000003c sunxi_power_down
00000000001096c4  w    F .text	0000000000000004 bl31_plat_enable_mmu
00000000001097f8 g     F .text	0000000000000018 console_16550_core_flush
00000000001058a4 g     F .text	0000000000000004 cm_init
0000000000109890 g     F .text	0000000000000004 plat_crash_console_flush
000000000010b000 g       .text	0000000000000000 runtime_exceptions
000000000010cb58 g       .rodata	0000000000000000 __pubsub_cm_exited_secure_world_start
00000000001063bc g     F .text	0000000000000024 psci_spd_migrate_info
000000000010a0f0 g     F .text	000000000000004c fdt_getprop
00000000001092f8 g     F .text	0000000000000018 _cpu_data_by_index
00000000001063e0 g     F .text	0000000000000004 psci_print_power_domain_map
0000000000107d08 g     F .text	000000000000007c axp_read
0000000000107eb8 g     F .text	0000000000000028 plat_get_target_pwr_state
00000000001081a0 g     F .text	000000000000009c console_putc
0000000000026000 g       coherent_ram	0000000000000000 __NOBITS_END__
0000000000021000 g       stacks	0000000000000000 __NOBITS_START__
0000000000104c58 g     F .text	0000000000000014 gicd_write_icfgr
00000000001096cc  w    F .text	0000000000000004 plat_handle_el3_ea
000000000010c010 g     O .rodata	0000000000000008 axp_compatible
000000000010a8b4 g     F .text	0000000000000028 strrchr
0000000000105d0c g     F .text	0000000000000070 psci_is_last_on_cpu
0000000000109870 g     F .text	0000000000000018 plat_crash_console_init
000000000010b680 g     F .text	0000000000000000 irq_aarch32
0000000000109420 g     F .text	0000000000000038 flush_dcache_range
000000000010509c g     F .text	000000000000000c timer_init
000000000010a13c g     F .text	0000000000000098 fdt_stringlist_contains
0000000000107358 g     F .text	000000000000006c bl31_early_platform_setup2
00000000001097d8 g     F .text	0000000000000018 console_16550_core_getc
0000000000104e3c g     F .text	00000000000000e0 gicv2_secure_ppi_sgi_setup_props
000000000010cb20 g       .rodata	0000000000000000 __PMF_SVC_DESCS_END__
000000000010d180 g       stacks	0000000000000000 __RELA_END__
000000000010d180 g       stacks	0000000000000000 __RELA_START__
000000000010b180 g     F .text	0000000000000000 serror_sp_el0
000000000010a444 g     F .text	00000000000003f0 vprintf
0000000000108dc4 g     F .text	0000000000000004 report_unhandled_exception
0000000000106bd8 g     F .text	00000000000000d4 psci_cpu_on_finish
00000000001065a8 g     F .text	0000000000000008 psci_cpu_off
00000000001096b4  w    F .text	0000000000000004 plat_reset_handler
0000000000109818 g     F .text	0000000000000058 enable_mmu_direct_el3
0000000000109efc g     F .text	0000000000000044 fdt_subnode_offset
000000000010cb58 g       .rodata	0000000000000000 __pubsub_cm_entering_normal_world_end
0000000000109094 g     F .text	000000000000003c get_cpu_ops_ptr
0000000000104000 g     F .text	0000000000000150 bl31_entrypoint
00000000001041ec g     F .text	0000000000000024 cm_get_context_by_index
0000000000105a28 g     F .text	000000000000002c cm_init_my_context
000000000010b580 g     F .text	0000000000000000 serror_aarch64
000000000010a2a4 g     F .text	000000000000002c memchr
0000000000104850 g     F .text	0000000000000018 mhu_secure_message_send
00000000001092e4 g     F .text	0000000000000014 init_cpu_data_ptr
000000000010d000 g       .rodata	0000000000000000 __RODATA_END__
0000000000108dc8 g     F .text	0000000000000078 enter_lower_el_sync_ea
00000000001083c8 g     F .text	000000000000000c xlat_arch_current_el
0000000000104f3c g     F .text	0000000000000020 gicv2_cpuif_disable
0000000000108bc8 g     F .text	0000000000000028 sunxi_read_soc_id
0000000000104bf8 g     F .text	0000000000000014 gicd_read_icfgr
0000000000109c24 g     F .text	0000000000000050 fdt_next_subnode
0000000000106974 g     F .text	0000000000000104 psci_do_cpu_off
0000000000022ccc g     O .bss	0000000000000004 psci_caps
0000000000108b3c g     F .text	0000000000000008 plat_get_ns_image_entrypoint
00000000001058a8 g     F .text	0000000000000154 cm_setup_context
0000000000104000 g       .text	0000000000000000 __BL31_START__
000000000010b280 g     F .text	0000000000000000 irq_sp_elx
0000000000104a0c g     F .text	000000000000007c scpi_set_css_power_state
0000000000022d80 g       .bss	0000000000000000 __PMF_PERCPU_TIMESTAMP_END__
000000000010b100 g     F .text	0000000000000000 fiq_sp_el0
000000000010a87c g     F .text	0000000000000038 strncmp
000000000010c000 g       .rodata	0000000000000000 __RODATA_START__
000000000010d17d g       .data	0000000000000000 __DATA_END__
00000000001093c8 g       .text	0000000000000000 asm_print_hex_bits
000000000010cb20 g       .rodata	0000000000000000 __CPU_OPS_START__
0000000000105028 g     F .text	0000000000000068 udelay
0000000000109b00 g     F .text	0000000000000040 fdt_check_prop_offset_
0000000000108368 g     F .text	000000000000004c tcr_physical_addr_size_bits
0000000000109490 g     F .text	0000000000000038 inv_dcache_range
000000000010d17c g     O .data	0000000000000001 console_state
0000000000104550 g     F .text	0000000000000010 axp_power_off
0000000000106784 g     F .text	000000000000014c psci_smc_handler
00000000001050d4 g     F .text	0000000000000044 generic_delay_timer_init
0000000000106ff4 g     F .text	00000000000001b0 psci_cpu_suspend_start
0000000000105d7c g     F .text	0000000000000058 psci_init_req_local_pwr_states
000000000010cb58 g       .rodata	0000000000000000 __pubsub_cm_entering_secure_world_end
00000000001050b4 g     F .text	0000000000000020 generic_delay_timer_init_args
000000000010a2d0 g     F .text	0000000000000034 memcmp
00000000001090d0 g     F .text	0000000000000010 cpu_get_rev_var
0000000000106a78 g     F .text	0000000000000160 psci_cpu_on_start
00000000001060b4 g     F .text	000000000000003c psci_find_max_off_lvl
0000000000108518 g     F .text	00000000000000d8 xlat_desc
0000000000109f78 g     F .text	0000000000000038 fdt_next_property_offset
0000000000104cbc g     F .text	0000000000000040 gicd_set_icfgr
0000000000025020 g     O coherent_ram	0000000000000020 psci_non_cpu_pd_nodes
0000000000023400 g       .bss	0000000000000000 __BSS_END__
000000000010cb58 g       .rodata	0000000000000000 __CPU_OPS_END__
00000000001063e4 g     F .text	0000000000000004 psci_do_pwrdown_sequence
0000000000109338 g     F .text	000000000000003c psci_do_pwrdown_cache_maintenance
0000000000105ad0 g     F .text	0000000000000020 cm_set_next_eret_context
000000000010cb58 g       .rodata	0000000000000000 __pubsub_cm_entering_secure_world_start
00000000001063e8 g     F .text	000000000000005c psci_cpu_on
0000000000104258 g     F .text	0000000000000060 bl31_prepare_next_image_entry
0000000000025000 g       coherent_ram	0000000000000000 __COHERENT_RAM_START__
0000000000022cc8 g     O .bss	0000000000000004 psci_plat_core_count
000000000010671c g     F .text	0000000000000068 psci_features
000000000010cb58 g       .rodata	0000000000000000 __GOT_END__
000000000010a358 g     F .text	000000000000001c memset
0000000000109740 g     F .text	0000000000000058 console_16550_register
000000000010c485 g     O .rodata	0000000000000001 axp_chip_id
000000000010cb20 g       .rodata	0000000000000000 __PARSER_LIB_DESCS_END__
0000000000104804 g     F .text	000000000000004c mhu_secure_message_start
0000000000105dd4 g     F .text	0000000000000090 psci_get_target_local_pwr_states
0000000000105580 g     F .text	000000000000020c i2c_read
000000000010cb58 g       .rodata	0000000000000000 __pubsub_cm_exited_normal_world_end
0000000000108e40 g     F .text	000000000000001c enter_lower_el_async_ea
0000000000022a50 g     O .bss	0000000000000008 psci_plat_pm_ops
00000000001082b4  w    F .text	0000000000000008 plat_get_soc_revision
0000000000104244 g     F .text	0000000000000014 bl31_setup
000000000010cb58 g       .rodata	0000000000000000 __pubsub_psci_suspend_pwrdown_start_start
000000000010cb58 g       .rodata	0000000000000000 __GOT_START__
0000000000104238 g     F .text	000000000000000c get_arm_std_svc_args
000000000010cb58 g       .rodata	0000000000000000 __pubsub_cm_entering_normal_world_start
0000000000000000 g       *ABS*	0000000000000000 __PERCPU_TIMESTAMP_SIZE__
0000000000105bac g     F .text	00000000000000bc bakery_lock_get
000000000010c000 g       .text	0000000000000000 __TEXT_END__
00000000001068d0 g     F .text	000000000000005c psci_mem_protect
000000000010cb20 g       .rodata	0000000000000000 __FCONF_POPULATOR_END__
0000000000105c68 g     F .text	0000000000000034 bakery_lock_release
000000000010434c g     F .text	0000000000000024 get_interrupt_type_handler
0000000000107cfc g     F .text	000000000000000c plat_get_power_domain_tree_desc
0000000000104d98 g     F .text	00000000000000a4 gicv2_secure_spis_configure_props
0000000000104c48 g     F .text	0000000000000010 gicd_write_ipriorityr
00000000001066c4 g     F .text	0000000000000058 psci_node_hw_state
0000000000104b70 g     F .text	0000000000000074 scpi_sys_power_state
00000000001098b4 g     F .text	0000000000000088 fdt_check_header
00000000001095b4 g     F .text	0000000000000010 dcsw_op_level2
0000000000109074 g     F .text	0000000000000020 init_cpu_ops
000000000010823c g     F .text	0000000000000070 console_flush
000000000010b300 g     F .text	0000000000000000 fiq_sp_elx
0000000000109d70 g     F .text	00000000000000a8 fdt_get_name
000000000010b400 g     F .text	0000000000000000 sync_exception_aarch64
000000000010b500 g     F .text	0000000000000000 fiq_aarch64
000000000010549c g     F .text	00000000000000e4 i2c_init
0000000000104be4 g     F .text	0000000000000014 gicd_read_igroupr
0000000000108194 g     F .text	000000000000000c console_switch_state
0000000000109330 g     F .text	0000000000000008 spin_unlock
0000000000109bf0 g     F .text	0000000000000034 fdt_first_subnode
0000000000022000 g       .bss	0000000000000000 __BSS_START__
00000000001087d4 g     F .text	0000000000000234 mmap_add_region_ctx
000000000010cb20 g       .rodata	0000000000000000 __PMF_SVC_DESCS_START__
0000000000109888 g     F .text	0000000000000008 plat_crash_console_putc
0000000000022000 g     O .bss	0000000000000100 percpu_data
00000000001090f4 g     F .text	0000000000000014 cpu_rev_var_hs
0000000000109b40 g     F .text	00000000000000b0 fdt_next_node
0000000000104868 g     F .text	0000000000000064 mhu_secure_message_wait
0000000000109310 g     F .text	0000000000000020 spin_lock
0000000000108134 g     F .text	000000000000002c console_is_registered
0000000000105cf8 g     F .text	0000000000000014 psci_query_sys_suspend_pwrstate
00000000001080a0 g     F .text	0000000000000094 tf_log
000000000010cb58 g       .rodata	0000000000000000 __pubsub_psci_cpu_on_finish_start
000000000010cb20 g       .rodata	0000000000000000 __FCONF_POPULATOR_START__
00000000001090e0 g     F .text	0000000000000014 cpu_rev_var_ls
000000000010431c g     F .text	0000000000000030 get_scr_el3_from_routing_model
000000000010e000 g       stacks	0000000000000000 __RW_END__
0000000000104944 g     F .text	00000000000000c8 scpi_wait_ready
0000000000025040 g       coherent_ram	0000000000000000 __COHERENT_RAM_END_UNALIGNED__
0000000000108b44 g     F .text	0000000000000084 sunxi_configure_mmu_el3
00000000001073cc g     F .text	0000000000000194 bl31_platform_setup
0000000000109d48 g     F .text	0000000000000028 fdt_string
0000000000107d84 g     F .text	0000000000000054 axp_write
00000000001097f0 g     F .text	0000000000000008 console_16550_getc
0000000000021000 g       stacks	0000000000000000 __STACKS_START__
0000000000105f38 g     F .text	000000000000017c psci_do_state_coordination
00000000001072b4 g     F .text	00000000000000a4 psci_system_reset2
00000000001084d0 g     F .text	0000000000000048 enable_mmu_el3
00000000001099b8 g     F .text	0000000000000108 fdt_next_tag
000000000010b780 g     F .text	0000000000000000 serror_aarch32
00000000001096c8  w    F .text	0000000000000004 plat_handle_double_fault
0000000000022d80 g       .bss	0000000000000000 __PMF_TIMESTAMP_END__
0000000000108a44 g     F .text	00000000000000e4 init_xlat_tables_ctx
000000000010cb58 g       .rodata	0000000000000000 __pubsub_psci_suspend_pwrdown_finish_start
0000000000109894 g     F .text	0000000000000014 plat_my_core_pos
0000000000104a88 g     F .text	00000000000000e8 scpi_get_css_power_state
0000000000104ffc g     F .text	0000000000000014 gicv2_driver_init
0000000000104370 g     F .text	0000000000000130 runtime_svc_init
000000000010a860 g     F .text	000000000000001c strlen
0000000000104f5c g     F .text	0000000000000048 gicv2_pcpu_distif_init
000000000010b480 g     F .text	0000000000000000 irq_aarch64
0000000000106684 g     F .text	0000000000000018 psci_migrate_info_type
00000000001082ac  w    F .text	0000000000000008 plat_get_soc_version
000000000010692c g     F .text	0000000000000048 psci_mem_chk_range
00000000001093f4  w      .text	0000000000000000 el3_panic
0000000000104c6c g     F .text	0000000000000030 gicd_clr_igroupr
0000000000108b28 g     F .text	0000000000000004 xlat_mmap_print
000000000010773c g     F .text	0000000000000078 sunxi_disable_secondary_cpus
00000000001096d0 g     F .text	0000000000000070 console_16550_core_init
0000000000106124 g     F .text	000000000000006c psci_acquire_pwr_domain_locks
000000000010a1d4 g     F .text	000000000000004c fdt_node_check_compatible
000000000010cb58 g       .rodata	0000000000000000 __pubsub_psci_cpu_on_finish_end
0000000000109128 g     F .text	00000000000000ac el1_sysregs_context_restore
0000000000107598 g     F .text	00000000000000b0 sunxi_cpu_off
0000000000022b40 g     O .bss	0000000000000008 console_list
0000000000105eac g     F .text	000000000000008c psci_set_pwr_domains_to_run
0000000000104c0c g     F .text	0000000000000014 gicd_write_igroupr
0000000000108dc4 g       .text	0000000000000000 report_unhandled_interrupt
000000000010b700 g     F .text	0000000000000000 fiq_aarch32
0000000000107c98 g     F .text	0000000000000030 sunxi_security_setup
0000000000109380  w    F .text	000000000000001c plat_get_my_stack
0000000000108450 g     F .text	0000000000000034 mmap_add_region
0000000000104000 g       .text	0000000000000000 __TEXT_START__
000000000010cb20 g       .rodata	0000000000000000 __PARSER_LIB_DESCS_START__
0000000000022a58 g     O .bss	0000000000000008 psci_spd_pm
00000000001048cc g     F .text	000000000000001c mhu_secure_message_end



Disassembly of section .text:

0000000000104000 <bl31_entrypoint>:
  104000:	aa0003f4 	mov	x20, x0
  104004:	aa0103f5 	mov	x21, x1
  104008:	aa0203f6 	mov	x22, x2
  10400c:	aa0303f7 	mov	x23, x3
  104010:	d2810600 	mov	x0, #0x830                 	// #2096
  104014:	f2a618a0 	movk	x0, #0x30c5, lsl #16
  104018:	d51e1000 	msr	sctlr_el3, x0
  10401c:	d5033fdf 	isb
  104020:	10037f00 	adr	x0, 10b000 <sync_exception_sp_el0>
  104024:	d51ec000 	msr	vbar_el3, x0
  104028:	d5033fdf 	isb
  10402c:	94001401 	bl	109030 <reset_handler>
  104030:	d2820141 	mov	x1, #0x100a                	// #4106
  104034:	d53e1000 	mrs	x0, sctlr_el3
  104038:	aa010000 	orr	x0, x0, x1
  10403c:	d51e1000 	msr	sctlr_el3, x0
  104040:	d5033fdf 	isb
  104044:	940014a8 	bl	1092e4 <init_cpu_data_ptr>
  104048:	d2804700 	mov	x0, #0x238                 	// #568
  10404c:	d51e1100 	msr	scr_el3, x0
  104050:	d2900000 	mov	x0, #0x8000                	// #32768
  104054:	f2a01020 	movk	x0, #0x81, lsl #16
  104058:	d51e1320 	msr	mdcr_el3, x0
  10405c:	d2801c00 	mov	x0, #0xe0                  	// #224
  104060:	d51b9c00 	msr	pmcr_el0, x0
  104064:	d50344ff 	msr	daifclr, #0x4
  104068:	d2800000 	mov	x0, #0x0                   	// #0
  10406c:	d51e1140 	msr	cptr_el3, x0
  104070:	d5380400 	mrs	x0, id_aa64pfr0_el1
  104074:	d370cc00 	ubfx	x0, x0, #48, #4
  104078:	f100041f 	cmp	x0, #0x1
  10407c:	54000061 	b.ne	104088 <bl31_entrypoint+0x88>  // b.any
  104080:	d2a02000 	mov	x0, #0x1000000             	// #16777216
  104084:	d51b42a0 	msr	dit, x0
  104088:	94001608 	bl	1098a8 <platform_mem_init>
  10408c:	b0000040 	adrp	x0, 10d000 <sunxi_psci_ops>
  104090:	91000000 	add	x0, x0, #0x0
  104094:	d0000041 	adrp	x1, 10e000 <__BL31_END__>
  104098:	91000021 	add	x1, x1, #0x0
  10409c:	cb000021 	sub	x1, x1, x0
  1040a0:	940014fc 	bl	109490 <inv_dcache_range>
  1040a4:	b0fff8e0 	adrp	x0, 21000 <__NOBITS_START__>
  1040a8:	91000000 	add	x0, x0, #0x0
  1040ac:	d0fff901 	adrp	x1, 26000 <__COHERENT_RAM_END__>
  1040b0:	91000021 	add	x1, x1, #0x0
  1040b4:	cb000021 	sub	x1, x1, x0
  1040b8:	940014f6 	bl	109490 <inv_dcache_range>
  1040bc:	d0fff8e0 	adrp	x0, 22000 <percpu_data>
  1040c0:	91000000 	add	x0, x0, #0x0
  1040c4:	f0fff8e1 	adrp	x1, 23000 <tf_base_xlat_table>
  1040c8:	91100021 	add	x1, x1, #0x400
  1040cc:	cb000021 	sub	x1, x1, x0
  1040d0:	9400153d 	bl	1095c4 <zeromem>
  1040d4:	b0fff900 	adrp	x0, 25000 <mhu_secure_message_lock>
  1040d8:	91000000 	add	x0, x0, #0x0
  1040dc:	b0fff901 	adrp	x1, 25000 <mhu_secure_message_lock>
  1040e0:	91010021 	add	x1, x1, #0x40
  1040e4:	cb000021 	sub	x1, x1, x0
  1040e8:	94001537 	bl	1095c4 <zeromem>
  1040ec:	d50040bf 	msr	spsel, #0x0
  1040f0:	940014ab 	bl	10939c <plat_set_my_stack>
  1040f4:	d2800014 	mov	x20, #0x0                   	// #0
  1040f8:	d2800015 	mov	x21, #0x0                   	// #0
  1040fc:	d2800016 	mov	x22, #0x0                   	// #0
  104100:	d2800017 	mov	x23, #0x0                   	// #0
  104104:	aa1403e0 	mov	x0, x20
  104108:	aa1503e1 	mov	x1, x21
  10410c:	aa1603e2 	mov	x2, x22
  104110:	aa1703e3 	mov	x3, x23
  104114:	9400004c 	bl	104244 <bl31_setup>
  104118:	94000068 	bl	1042b8 <bl31_main>
  10411c:	b0000040 	adrp	x0, 10d000 <sunxi_psci_ops>
  104120:	91000000 	add	x0, x0, #0x0
  104124:	b0000041 	adrp	x1, 10d000 <sunxi_psci_ops>
  104128:	9105f421 	add	x1, x1, #0x17d
  10412c:	cb000021 	sub	x1, x1, x0
  104130:	940014ca 	bl	109458 <clean_dcache_range>
  104134:	d0fff8e0 	adrp	x0, 22000 <percpu_data>
  104138:	91000000 	add	x0, x0, #0x0
  10413c:	f0fff8e1 	adrp	x1, 23000 <tf_base_xlat_table>
  104140:	91100021 	add	x1, x1, #0x400
  104144:	cb000021 	sub	x1, x1, x0
  104148:	940014c4 	bl	109458 <clean_dcache_range>
  10414c:	14001459 	b	1092b0 <el3_exit>

0000000000104150 <bl31_warm_entrypoint>:
  104150:	d2810600 	mov	x0, #0x830                 	// #2096
  104154:	f2a618a0 	movk	x0, #0x30c5, lsl #16
  104158:	d51e1000 	msr	sctlr_el3, x0
  10415c:	d5033fdf 	isb
  104160:	10037500 	adr	x0, 10b000 <sync_exception_sp_el0>
  104164:	d51ec000 	msr	vbar_el3, x0
  104168:	d5033fdf 	isb
  10416c:	940013b1 	bl	109030 <reset_handler>
  104170:	d2820141 	mov	x1, #0x100a                	// #4106
  104174:	d53e1000 	mrs	x0, sctlr_el3
  104178:	aa010000 	orr	x0, x0, x1
  10417c:	d51e1000 	msr	sctlr_el3, x0
  104180:	d5033fdf 	isb
  104184:	94001458 	bl	1092e4 <init_cpu_data_ptr>
  104188:	d2804700 	mov	x0, #0x238                 	// #568
  10418c:	d51e1100 	msr	scr_el3, x0
  104190:	d2900000 	mov	x0, #0x8000                	// #32768
  104194:	f2a01020 	movk	x0, #0x81, lsl #16
  104198:	d51e1320 	msr	mdcr_el3, x0
  10419c:	d2801c00 	mov	x0, #0xe0                  	// #224
  1041a0:	d51b9c00 	msr	pmcr_el0, x0
  1041a4:	d50344ff 	msr	daifclr, #0x4
  1041a8:	d2800000 	mov	x0, #0x0                   	// #0
  1041ac:	d51e1140 	msr	cptr_el3, x0
  1041b0:	d5380400 	mrs	x0, id_aa64pfr0_el1
  1041b4:	d370cc00 	ubfx	x0, x0, #48, #4
  1041b8:	f100041f 	cmp	x0, #0x1
  1041bc:	54000061 	b.ne	1041c8 <bl31_warm_entrypoint+0x78>  // b.any
  1041c0:	d2a02000 	mov	x0, #0x1000000             	// #16777216
  1041c4:	d51b42a0 	msr	dit, x0
  1041c8:	d50040bf 	msr	spsel, #0x0
  1041cc:	94001474 	bl	10939c <plat_set_my_stack>
  1041d0:	aa1f03e0 	mov	x0, xzr
  1041d4:	9400153c 	bl	1096c4 <bl31_plat_enable_mmu>
  1041d8:	94000849 	bl	1062fc <psci_warmboot_entrypoint>
  1041dc:	14001435 	b	1092b0 <el3_exit>

00000000001041e0 <cm_get_context>:
  1041e0:	d53ed041 	mrs	x1, tpidr_el3
  1041e4:	f8605820 	ldr	x0, [x1, w0, uxtw #3]
  1041e8:	d65f03c0 	ret

00000000001041ec <cm_get_context_by_index>:
  1041ec:	a9be7bfd 	stp	x29, x30, [sp, #-32]!
  1041f0:	910003fd 	mov	x29, sp
  1041f4:	f9000bf3 	str	x19, [sp, #16]
  1041f8:	2a0103f3 	mov	w19, w1
  1041fc:	9400143f 	bl	1092f8 <_cpu_data_by_index>
  104200:	f8735800 	ldr	x0, [x0, w19, uxtw #3]
  104204:	f9400bf3 	ldr	x19, [sp, #16]
  104208:	a8c27bfd 	ldp	x29, x30, [sp], #32
  10420c:	d65f03c0 	ret

0000000000104210 <cm_set_context_by_index>:
  104210:	a9be7bfd 	stp	x29, x30, [sp, #-32]!
  104214:	910003fd 	mov	x29, sp
  104218:	a90153f3 	stp	x19, x20, [sp, #16]
  10421c:	2a0203f3 	mov	w19, w2
  104220:	aa0103f4 	mov	x20, x1
  104224:	94001435 	bl	1092f8 <_cpu_data_by_index>
  104228:	f8335814 	str	x20, [x0, w19, uxtw #3]
  10422c:	a94153f3 	ldp	x19, x20, [sp, #16]
  104230:	a8c27bfd 	ldp	x29, x30, [sp], #32
  104234:	d65f03c0 	ret

0000000000104238 <get_arm_std_svc_args>:
  104238:	90000040 	adrp	x0, 10c000 <__TEXT_END__>
  10423c:	91000000 	add	x0, x0, #0x0
  104240:	d65f03c0 	ret

0000000000104244 <bl31_setup>:
  104244:	a9bf7bfd 	stp	x29, x30, [sp, #-16]!
  104248:	910003fd 	mov	x29, sp
  10424c:	94000c43 	bl	107358 <bl31_early_platform_setup2>
  104250:	a8c17bfd 	ldp	x29, x30, [sp], #16
  104254:	14000c5c 	b	1073c4 <bl31_plat_arch_setup>

0000000000104258 <bl31_prepare_next_image_entry>:
  104258:	a9be7bfd 	stp	x29, x30, [sp, #-32]!
  10425c:	910003fd 	mov	x29, sp
  104260:	a90153f3 	stp	x19, x20, [sp, #16]
  104264:	d5380400 	mrs	x0, id_aa64pfr0_el1
  104268:	d3441c00 	ubfx	x0, x0, #4, #4
  10426c:	f100041f 	cmp	x0, #0x1
  104270:	540000c1 	b.ne	104288 <bl31_prepare_next_image_entry+0x30>  // b.any
  104274:	90000040 	adrp	x0, 10c000 <__TEXT_END__>
  104278:	910dc000 	add	x0, x0, #0x370
  10427c:	94000f89 	bl	1080a0 <tf_log>
  104280:	94000fef 	bl	10823c <console_flush>
  104284:	9400145c 	bl	1093f4 <do_panic>
  104288:	b0000040 	adrp	x0, 10d000 <sunxi_psci_ops>
  10428c:	b9410814 	ldr	w20, [x0, #264]
  104290:	2a1403e0 	mov	w0, w20
  104294:	94000cb3 	bl	107560 <bl31_plat_get_next_image_ep_info>
  104298:	aa0003f3 	mov	x19, x0
  10429c:	94000f80 	bl	10809c <print_entry_point_info>
  1042a0:	aa1303e0 	mov	x0, x19
  1042a4:	940005e1 	bl	105a28 <cm_init_my_context>
  1042a8:	2a1403e0 	mov	w0, w20
  1042ac:	a94153f3 	ldp	x19, x20, [sp, #16]
  1042b0:	a8c27bfd 	ldp	x29, x30, [sp], #32
  1042b4:	1400060f 	b	105af0 <cm_prepare_el3_exit>

00000000001042b8 <bl31_main>:
  1042b8:	a9be7bfd 	stp	x29, x30, [sp, #-32]!
  1042bc:	90000041 	adrp	x1, 10c000 <__TEXT_END__>
  1042c0:	910d9021 	add	x1, x1, #0x364
  1042c4:	910003fd 	mov	x29, sp
  1042c8:	f9000bf3 	str	x19, [sp, #16]
  1042cc:	90000053 	adrp	x19, 10c000 <__TEXT_END__>
  1042d0:	910f0273 	add	x19, x19, #0x3c0
  1042d4:	aa1303e0 	mov	x0, x19
  1042d8:	94000f72 	bl	1080a0 <tf_log>
  1042dc:	aa1303e0 	mov	x0, x19
  1042e0:	90000041 	adrp	x1, 10c000 <__TEXT_END__>
  1042e4:	910d1821 	add	x1, x1, #0x346
  1042e8:	94000f6e 	bl	1080a0 <tf_log>
  1042ec:	94000c38 	bl	1073cc <bl31_platform_setup>
  1042f0:	9400056d 	bl	1058a4 <cm_init>
  1042f4:	9400001f 	bl	104370 <runtime_svc_init>
  1042f8:	d0fff8e0 	adrp	x0, 22000 <percpu_data>
  1042fc:	f944c000 	ldr	x0, [x0, #2432]
  104300:	b4000040 	cbz	x0, 104308 <bl31_main+0x50>
  104304:	d63f0000 	blr	x0
  104308:	97ffffd4 	bl	104258 <bl31_prepare_next_image_entry>
  10430c:	94000fcc 	bl	10823c <console_flush>
  104310:	f9400bf3 	ldr	x19, [sp, #16]
  104314:	a8c27bfd 	ldp	x29, x30, [sp], #32
  104318:	14000ff5 	b	1082ec <bl31_plat_runtime_setup>

000000000010431c <get_scr_el3_from_routing_model>:
  10431c:	2a0003e1 	mov	w1, w0
  104320:	d0fff8e2 	adrp	x2, 22000 <percpu_data>
  104324:	91262042 	add	x2, x2, #0x988
  104328:	8b010c40 	add	x0, x2, x1, lsl #3
  10432c:	8b010c43 	add	x3, x2, x1, lsl #3
  104330:	8b010c41 	add	x1, x2, x1, lsl #3
  104334:	f9400463 	ldr	x3, [x3, #8]
  104338:	f9402400 	ldr	x0, [x0, #72]
  10433c:	f9401421 	ldr	x1, [x1, #40]
  104340:	aa030000 	orr	x0, x0, x3
  104344:	aa010000 	orr	x0, x0, x1
  104348:	d65f03c0 	ret

000000000010434c <get_interrupt_type_handler>:
  10434c:	7100081f 	cmp	w0, #0x2
  104350:	540000c8 	b.hi	104368 <get_interrupt_type_handler+0x1c>  // b.pmore
  104354:	d37b7c00 	ubfiz	x0, x0, #5, #32
  104358:	d0fff8e1 	adrp	x1, 22000 <percpu_data>
  10435c:	91262021 	add	x1, x1, #0x988
  104360:	f8606820 	ldr	x0, [x1, x0]
  104364:	d65f03c0 	ret
  104368:	d2800000 	mov	x0, #0x0                   	// #0
  10436c:	17fffffe 	b	104364 <get_interrupt_type_handler+0x18>

0000000000104370 <runtime_svc_init>:
  104370:	a9bb7bfd 	stp	x29, x30, [sp, #-80]!
  104374:	910003fd 	mov	x29, sp
  104378:	a90153f3 	stp	x19, x20, [sp, #16]
  10437c:	90000053 	adrp	x19, 10c000 <__TEXT_END__>
  104380:	912c8273 	add	x19, x19, #0xb20
  104384:	a9025bf5 	stp	x21, x22, [sp, #32]
  104388:	90000056 	adrp	x22, 10c000 <__TEXT_END__>
  10438c:	912b82d6 	add	x22, x22, #0xae0
  104390:	cb160273 	sub	x19, x19, x22
  104394:	a90363f7 	stp	x23, x24, [sp, #48]
  104398:	f90023f9 	str	x25, [sp, #64]
  10439c:	f1007e7f 	cmp	x19, #0x1f
  1043a0:	540001a9 	b.ls	1043d4 <runtime_svc_init+0x64>  // b.plast
  1043a4:	90000058 	adrp	x24, 10c000 <__TEXT_END__>
  1043a8:	d345fe73 	lsr	x19, x19, #5
  1043ac:	910fcf18 	add	x24, x24, #0x3f3
  1043b0:	52800015 	mov	w21, #0x0                   	// #0
  1043b4:	d0fff8f7 	adrp	x23, 22000 <percpu_data>
  1043b8:	913352f7 	add	x23, x23, #0xcd4
  1043bc:	aa1703e0 	mov	x0, x23
  1043c0:	d2801002 	mov	x2, #0x80                  	// #128
  1043c4:	12800001 	mov	w1, #0xffffffff            	// #-1
  1043c8:	940017e4 	bl	10a358 <memset>
  1043cc:	eb35027f 	cmp	x19, w21, uxtb
  1043d0:	540000e8 	b.hi	1043ec <runtime_svc_init+0x7c>  // b.pmore
  1043d4:	a94153f3 	ldp	x19, x20, [sp, #16]
  1043d8:	a9425bf5 	ldp	x21, x22, [sp, #32]
  1043dc:	a94363f7 	ldp	x23, x24, [sp, #48]
  1043e0:	f94023f9 	ldr	x25, [sp, #64]
  1043e4:	a8c57bfd 	ldp	x29, x30, [sp], #80
  1043e8:	d65f03c0 	ret
  1043ec:	d37b1eb9 	ubfiz	x25, x21, #5, #8
  1043f0:	8b1902d4 	add	x20, x22, x25
  1043f4:	38796ac1 	ldrb	w1, [x22, x25]
  1043f8:	39400680 	ldrb	w0, [x20, #1]
  1043fc:	6b00003f 	cmp	w1, w0
  104400:	54000148 	b.hi	104428 <runtime_svc_init+0xb8>  // b.pmore
  104404:	7100fc1f 	cmp	w0, #0x3f
  104408:	54000108 	b.hi	104428 <runtime_svc_init+0xb8>  // b.pmore
  10440c:	39400a80 	ldrb	w0, [x20, #2]
  104410:	7100041f 	cmp	w0, #0x1
  104414:	540000a8 	b.hi	104428 <runtime_svc_init+0xb8>  // b.pmore
  104418:	f9400a80 	ldr	x0, [x20, #16]
  10441c:	b5000120 	cbnz	x0, 104440 <runtime_svc_init+0xd0>
  104420:	f9400e80 	ldr	x0, [x20, #24]
  104424:	b50001e0 	cbnz	x0, 104460 <runtime_svc_init+0xf0>
  104428:	aa1403e1 	mov	x1, x20
  10442c:	90000040 	adrp	x0, 10c000 <__TEXT_END__>
  104430:	910f2c00 	add	x0, x0, #0x3cb
  104434:	94000f1b 	bl	1080a0 <tf_log>
  104438:	94000f81 	bl	10823c <console_flush>
  10443c:	940013ee 	bl	1093f4 <do_panic>
  104440:	d63f0000 	blr	x0
  104444:	340000e0 	cbz	w0, 104460 <runtime_svc_init+0xf0>
  104448:	f9400681 	ldr	x1, [x20, #8]
  10444c:	aa1803e0 	mov	x0, x24
  104450:	94000f14 	bl	1080a0 <tf_log>
  104454:	110006b5 	add	w21, w21, #0x1
  104458:	12001eb5 	and	w21, w21, #0xff
  10445c:	17ffffdc 	b	1043cc <runtime_svc_init+0x5c>
  104460:	39400a83 	ldrb	w3, [x20, #2]
  104464:	38796ac2 	ldrb	w2, [x22, x25]
  104468:	39400681 	ldrb	w1, [x20, #1]
  10446c:	531a0063 	ubfiz	w3, w3, #6, #1
  104470:	12001442 	and	w2, w2, #0x3f
  104474:	2a030040 	orr	w0, w2, w3
  104478:	12001421 	and	w1, w1, #0x3f
  10447c:	2a0003e2 	mov	w2, w0
  104480:	2a030021 	orr	w1, w1, w3
  104484:	8b0002e0 	add	x0, x23, x0
  104488:	6b01005f 	cmp	w2, w1
  10448c:	54fffe48 	b.hi	104454 <runtime_svc_init+0xe4>  // b.pmore
  104490:	11000442 	add	w2, w2, #0x1
  104494:	38001415 	strb	w21, [x0], #1
  104498:	12001c42 	and	w2, w2, #0xff
  10449c:	17fffffb 	b	104488 <runtime_svc_init+0x118>

00000000001044a0 <axp_check_id>:
  1044a0:	a9be7bfd 	stp	x29, x30, [sp, #-32]!
  1044a4:	52800060 	mov	w0, #0x3                   	// #3
  1044a8:	910003fd 	mov	x29, sp
  1044ac:	f9000bf3 	str	x19, [sp, #16]
  1044b0:	94000e16 	bl	107d08 <axp_read>
  1044b4:	2a0003f3 	mov	w19, w0
  1044b8:	37f80160 	tbnz	w0, #31, 1044e4 <axp_check_id+0x44>
  1044bc:	528019e0 	mov	w0, #0xcf                  	// #207
  1044c0:	0a000273 	and	w19, w19, w0
  1044c4:	90000040 	adrp	x0, 10c000 <__TEXT_END__>
  1044c8:	39521400 	ldrb	w0, [x0, #1157]
  1044cc:	6b13001f 	cmp	w0, w19
  1044d0:	54000120 	b.eq	1044f4 <axp_check_id+0x54>  // b.none
  1044d4:	90000040 	adrp	x0, 10c000 <__TEXT_END__>
  1044d8:	2a1303e1 	mov	w1, w19
  1044dc:	91121800 	add	x0, x0, #0x486
  1044e0:	94000ef0 	bl	1080a0 <tf_log>
  1044e4:	2a1303e0 	mov	w0, w19
  1044e8:	f9400bf3 	ldr	x19, [sp, #16]
  1044ec:	a8c27bfd 	ldp	x29, x30, [sp], #32
  1044f0:	d65f03c0 	ret
  1044f4:	52800013 	mov	w19, #0x0                   	// #0
  1044f8:	17fffffb 	b	1044e4 <axp_check_id+0x44>

00000000001044fc <axp_clrsetbits>:
  1044fc:	a9bd7bfd 	stp	x29, x30, [sp, #-48]!
  104500:	910003fd 	mov	x29, sp
  104504:	a90153f3 	stp	x19, x20, [sp, #16]
  104508:	12001c14 	and	w20, w0, #0xff
  10450c:	12001c33 	and	w19, w1, #0xff
  104510:	2a1403e0 	mov	w0, w20
  104514:	f90013f5 	str	x21, [sp, #32]
  104518:	12001c55 	and	w21, w2, #0xff
  10451c:	94000dfb 	bl	107d08 <axp_read>
  104520:	37f80100 	tbnz	w0, #31, 104540 <axp_clrsetbits+0x44>
  104524:	0a330013 	bic	w19, w0, w19
  104528:	2a1403e0 	mov	w0, w20
  10452c:	2a1302a1 	orr	w1, w21, w19
  104530:	a94153f3 	ldp	x19, x20, [sp, #16]
  104534:	f94013f5 	ldr	x21, [sp, #32]
  104538:	a8c37bfd 	ldp	x29, x30, [sp], #48
  10453c:	14000e12 	b	107d84 <axp_write>
  104540:	a94153f3 	ldp	x19, x20, [sp, #16]
  104544:	f94013f5 	ldr	x21, [sp, #32]
  104548:	a8c37bfd 	ldp	x29, x30, [sp], #48
  10454c:	d65f03c0 	ret

0000000000104550 <axp_power_off>:
  104550:	12800fe2 	mov	w2, #0xffffff80            	// #-128
  104554:	52800001 	mov	w1, #0x0                   	// #0
  104558:	52800640 	mov	w0, #0x32                  	// #50
  10455c:	17ffffe8 	b	1044fc <axp_clrsetbits>

0000000000104560 <axp_setup_regulators>:
  104560:	b4001500 	cbz	x0, 104800 <axp_setup_regulators+0x2a0>
  104564:	a9ba7bfd 	stp	x29, x30, [sp, #-96]!
  104568:	90000041 	adrp	x1, 10c000 <__TEXT_END__>
  10456c:	910003fd 	mov	x29, sp
  104570:	f9400822 	ldr	x2, [x1, #16]
  104574:	12800001 	mov	w1, #0xffffffff            	// #-1
  104578:	a90153f3 	stp	x19, x20, [sp, #16]
  10457c:	a9025bf5 	stp	x21, x22, [sp, #32]
  104580:	aa0003f5 	mov	x21, x0
  104584:	a90363f7 	stp	x23, x24, [sp, #48]
  104588:	f90023f9 	str	x25, [sp, #64]
  10458c:	94001725 	bl	10a220 <fdt_node_offset_by_compatible>
  104590:	2a0003f3 	mov	w19, w0
  104594:	37f812a0 	tbnz	w0, #31, 1047e8 <axp_setup_regulators+0x288>
  104598:	2a0003e1 	mov	w1, w0
  10459c:	90000042 	adrp	x2, 10c000 <__TEXT_END__>
  1045a0:	aa1503e0 	mov	x0, x21
  1045a4:	91129842 	add	x2, x2, #0x4a6
  1045a8:	d2800003 	mov	x3, #0x0                   	// #0
  1045ac:	940016d1 	bl	10a0f0 <fdt_getprop>
  1045b0:	b4000120 	cbz	x0, 1045d4 <axp_setup_regulators+0x74>
  1045b4:	52800002 	mov	w2, #0x0                   	// #0
  1045b8:	52800201 	mov	w1, #0x10                  	// #16
  1045bc:	12800e00 	mov	w0, #0xffffff8f            	// #-113
  1045c0:	97ffffcf 	bl	1044fc <axp_clrsetbits>
  1045c4:	52800082 	mov	w2, #0x4                   	// #4
  1045c8:	52800001 	mov	w1, #0x0                   	// #0
  1045cc:	52800600 	mov	w0, #0x30                  	// #48
  1045d0:	97ffffcb 	bl	1044fc <axp_clrsetbits>
  1045d4:	2a1303e1 	mov	w1, w19
  1045d8:	aa1503e0 	mov	x0, x21
  1045dc:	90000042 	adrp	x2, 10c000 <__TEXT_END__>
  1045e0:	9112f442 	add	x2, x2, #0x4bd
  1045e4:	94001646 	bl	109efc <fdt_subnode_offset>
  1045e8:	2a0003e1 	mov	w1, w0
  1045ec:	37f80fe0 	tbnz	w0, #31, 1047e8 <axp_setup_regulators+0x288>
  1045f0:	aa1503e0 	mov	x0, x21
  1045f4:	90000056 	adrp	x22, 10c000 <__TEXT_END__>
  1045f8:	90000057 	adrp	x23, 10c000 <__TEXT_END__>
  1045fc:	9400157d 	bl	109bf0 <fdt_first_subnode>
  104600:	911322d6 	add	x22, x22, #0x4c8
  104604:	2a0003f4 	mov	w20, w0
  104608:	91135af7 	add	x23, x23, #0x4d6
  10460c:	52800018 	mov	w24, #0x0                   	// #0
  104610:	36f801f4 	tbz	w20, #31, 10464c <axp_setup_regulators+0xec>
  104614:	34000eb8 	cbz	w24, 1047e8 <axp_setup_regulators+0x288>
  104618:	90000040 	adrp	x0, 10c000 <__TEXT_END__>
  10461c:	39521400 	ldrb	w0, [x0, #1157]
  104620:	7101041f 	cmp	w0, #0x41
  104624:	54000d61 	b.ne	1047d0 <axp_setup_regulators+0x270>  // b.any
  104628:	12800fe2 	mov	w2, #0xffffff80            	// #-128
  10462c:	52800001 	mov	w1, #0x0                   	// #0
  104630:	52800240 	mov	w0, #0x12                  	// #18
  104634:	a94153f3 	ldp	x19, x20, [sp, #16]
  104638:	a9425bf5 	ldp	x21, x22, [sp, #32]
  10463c:	a94363f7 	ldp	x23, x24, [sp, #48]
  104640:	f94023f9 	ldr	x25, [sp, #64]
  104644:	a8c67bfd 	ldp	x29, x30, [sp], #96
  104648:	17ffffad 	b	1044fc <axp_clrsetbits>
  10464c:	aa1603e2 	mov	x2, x22
  104650:	2a1403e1 	mov	w1, w20
  104654:	aa1503e0 	mov	x0, x21
  104658:	d2800003 	mov	x3, #0x0                   	// #0
  10465c:	940016a5 	bl	10a0f0 <fdt_getprop>
  104660:	b40007a0 	cbz	x0, 104754 <axp_setup_regulators+0x1f4>
  104664:	910173e2 	add	x2, sp, #0x5c
  104668:	2a1403e1 	mov	w1, w20
  10466c:	aa1503e0 	mov	x0, x21
  104670:	940015c0 	bl	109d70 <fdt_get_name>
  104674:	b9805fe2 	ldrsw	x2, [sp, #92]
  104678:	90000041 	adrp	x1, 10c000 <__TEXT_END__>
  10467c:	aa0003f3 	mov	x19, x0
  104680:	91134021 	add	x1, x1, #0x4d0
  104684:	9400187e 	bl	10a87c <strncmp>
  104688:	340007c0 	cbz	w0, 104780 <axp_setup_regulators+0x220>
  10468c:	b9805fe2 	ldrsw	x2, [sp, #92]
  104690:	90000041 	adrp	x1, 10c000 <__TEXT_END__>
  104694:	aa1303e0 	mov	x0, x19
  104698:	91134c21 	add	x1, x1, #0x4d3
  10469c:	94001878 	bl	10a87c <strncmp>
  1046a0:	34000700 	cbz	w0, 104780 <axp_setup_regulators+0x220>
  1046a4:	90000059 	adrp	x25, 10c000 <__TEXT_END__>
  1046a8:	91006339 	add	x25, x25, #0x18
  1046ac:	f9400321 	ldr	x1, [x25]
  1046b0:	b40005e1 	cbz	x1, 10476c <axp_setup_regulators+0x20c>
  1046b4:	b9805fe2 	ldrsw	x2, [sp, #92]
  1046b8:	aa1303e0 	mov	x0, x19
  1046bc:	94001870 	bl	10a87c <strncmp>
  1046c0:	35000840 	cbnz	w0, 1047c8 <axp_setup_regulators+0x268>
  1046c4:	90000042 	adrp	x2, 10c000 <__TEXT_END__>
  1046c8:	2a1403e1 	mov	w1, w20
  1046cc:	9113a842 	add	x2, x2, #0x4ea
  1046d0:	aa1503e0 	mov	x0, x21
  1046d4:	d2800003 	mov	x3, #0x0                   	// #0
  1046d8:	94001686 	bl	10a0f0 <fdt_getprop>
  1046dc:	b5000560 	cbnz	x0, 104788 <axp_setup_regulators+0x228>
  1046e0:	128002a3 	mov	w3, #0xffffffea            	// #-22
  1046e4:	79401320 	ldrh	w0, [x25, #8]
  1046e8:	6b03001f 	cmp	w0, w3
  1046ec:	5400040c 	b.gt	10476c <axp_setup_regulators+0x20c>
  1046f0:	79401721 	ldrh	w1, [x25, #10]
  1046f4:	6b03003f 	cmp	w1, w3
  1046f8:	540003ab 	b.lt	10476c <axp_setup_regulators+0x20c>  // b.tstop
  1046fc:	79401b21 	ldrh	w1, [x25, #12]
  104700:	1ac10800 	udiv	w0, w0, w1
  104704:	1ac10c63 	sdiv	w3, w3, w1
  104708:	4b000063 	sub	w3, w3, w0
  10470c:	39403b20 	ldrb	w0, [x25, #14]
  104710:	12001c61 	and	w1, w3, #0xff
  104714:	6b23001f 	cmp	w0, w3, uxtb
  104718:	540000c2 	b.cs	104730 <axp_setup_regulators+0x1d0>  // b.hs, b.nlast
  10471c:	4b000021 	sub	w1, w1, w0
  104720:	52800042 	mov	w2, #0x2                   	// #2
  104724:	1ac20c21 	sdiv	w1, w1, w2
  104728:	0b210001 	add	w1, w0, w1, uxtb
  10472c:	12001c21 	and	w1, w1, #0xff
  104730:	39403f20 	ldrb	w0, [x25, #15]
  104734:	94000d94 	bl	107d84 <axp_write>
  104738:	39404720 	ldrb	w0, [x25, #17]
  10473c:	d2800022 	mov	x2, #0x1                   	// #1
  104740:	52800001 	mov	w1, #0x0                   	// #0
  104744:	9ac02042 	lsl	x2, x2, x0
  104748:	39404320 	ldrb	w0, [x25, #16]
  10474c:	97ffff6c 	bl	1044fc <axp_clrsetbits>
  104750:	14000007 	b	10476c <axp_setup_regulators+0x20c>
  104754:	aa1703e2 	mov	x2, x23
  104758:	2a1403e1 	mov	w1, w20
  10475c:	aa1503e0 	mov	x0, x21
  104760:	d2800003 	mov	x3, #0x0                   	// #0
  104764:	94001663 	bl	10a0f0 <fdt_getprop>
  104768:	b5fff7e0 	cbnz	x0, 104664 <axp_setup_regulators+0x104>
  10476c:	2a1403e1 	mov	w1, w20
  104770:	aa1503e0 	mov	x0, x21
  104774:	9400152c 	bl	109c24 <fdt_next_subnode>
  104778:	2a0003f4 	mov	w20, w0
  10477c:	17ffffa5 	b	104610 <axp_setup_regulators+0xb0>
  104780:	52800038 	mov	w24, #0x1                   	// #1
  104784:	17fffffa 	b	10476c <axp_setup_regulators+0x20c>
  104788:	b9400003 	ldr	w3, [x0]
  10478c:	90000042 	adrp	x2, 10c000 <__TEXT_END__>
  104790:	2a1403e1 	mov	w1, w20
  104794:	91140842 	add	x2, x2, #0x502
  104798:	5ac00873 	rev	w19, w3
  10479c:	aa1503e0 	mov	x0, x21
  1047a0:	d2800003 	mov	x3, #0x0                   	// #0
  1047a4:	94001653 	bl	10a0f0 <fdt_getprop>
  1047a8:	b4fff9c0 	cbz	x0, 1046e0 <axp_setup_regulators+0x180>
  1047ac:	b9400000 	ldr	w0, [x0]
  1047b0:	5ac00800 	rev	w0, w0
  1047b4:	6b00027f 	cmp	w19, w0
  1047b8:	54fff941 	b.ne	1046e0 <axp_setup_regulators+0x180>  // b.any
  1047bc:	52807d00 	mov	w0, #0x3e8                 	// #1000
  1047c0:	1ac00a63 	udiv	w3, w19, w0
  1047c4:	17ffffc8 	b	1046e4 <axp_setup_regulators+0x184>
  1047c8:	91006339 	add	x25, x25, #0x18
  1047cc:	17ffffb8 	b	1046ac <axp_setup_regulators+0x14c>
  1047d0:	7101001f 	cmp	w0, #0x40
  1047d4:	540000a1 	b.ne	1047e8 <axp_setup_regulators+0x288>  // b.any
  1047d8:	12800fe2 	mov	w2, #0xffffff80            	// #-128
  1047dc:	52800001 	mov	w1, #0x0                   	// #0
  1047e0:	52800220 	mov	w0, #0x11                  	// #17
  1047e4:	17ffff94 	b	104634 <axp_setup_regulators+0xd4>
  1047e8:	a94153f3 	ldp	x19, x20, [sp, #16]
  1047ec:	a9425bf5 	ldp	x21, x22, [sp, #32]
  1047f0:	a94363f7 	ldp	x23, x24, [sp, #48]
  1047f4:	f94023f9 	ldr	x25, [sp, #64]
  1047f8:	a8c67bfd 	ldp	x29, x30, [sp], #96
  1047fc:	d65f03c0 	ret
  104800:	d65f03c0 	ret

0000000000104804 <mhu_secure_message_start>:
  104804:	a9be7bfd 	stp	x29, x30, [sp, #-32]!
  104808:	b0fff900 	adrp	x0, 25000 <mhu_secure_message_lock>
  10480c:	91000000 	add	x0, x0, #0x0
  104810:	910003fd 	mov	x29, sp
  104814:	a90153f3 	stp	x19, x20, [sp, #16]
  104818:	d2860a14 	mov	x20, #0x3050                	// #12368
  10481c:	5284e213 	mov	w19, #0x2710                	// #10000
  104820:	f2a06014 	movk	x20, #0x300, lsl #16
  104824:	940004e2 	bl	105bac <bakery_lock_get>
  104828:	b9400280 	ldr	w0, [x20]
  10482c:	36000060 	tbz	w0, #0, 104838 <mhu_secure_message_start+0x34>
  104830:	71000673 	subs	w19, w19, #0x1
  104834:	54000081 	b.ne	104844 <mhu_secure_message_start+0x40>  // b.any
  104838:	a94153f3 	ldp	x19, x20, [sp, #16]
  10483c:	a8c27bfd 	ldp	x29, x30, [sp], #32
  104840:	d65f03c0 	ret
  104844:	52800140 	mov	w0, #0xa                   	// #10
  104848:	940001f8 	bl	105028 <udelay>
  10484c:	17fffff7 	b	104828 <mhu_secure_message_start+0x24>

0000000000104850 <mhu_secure_message_send>:
  104850:	d2800021 	mov	x1, #0x1                   	// #1
  104854:	9ac02021 	lsl	x1, x1, x0
  104858:	d2863000 	mov	x0, #0x3180                	// #12672
  10485c:	f2a06000 	movk	x0, #0x300, lsl #16
  104860:	b9000001 	str	w1, [x0]
  104864:	d65f03c0 	ret

0000000000104868 <mhu_secure_message_wait>:
  104868:	a9be7bfd 	stp	x29, x30, [sp, #-32]!
  10486c:	910003fd 	mov	x29, sp
  104870:	a90153f3 	stp	x19, x20, [sp, #16]
  104874:	d2862894 	mov	x20, #0x3144                	// #12612
  104878:	5284e213 	mov	w19, #0x2710                	// #10000
  10487c:	f2a06014 	movk	x20, #0x300, lsl #16
  104880:	b9400280 	ldr	w0, [x20]
  104884:	f240081f 	tst	x0, #0x7
  104888:	54000061 	b.ne	104894 <mhu_secure_message_wait+0x2c>  // b.any
  10488c:	71000673 	subs	w19, w19, #0x1
  104890:	540000a1 	b.ne	1048a4 <mhu_secure_message_wait+0x3c>  // b.any
  104894:	d2863082 	mov	x2, #0x3184                	// #12676
  104898:	52800000 	mov	w0, #0x0                   	// #0
  10489c:	f2a06002 	movk	x2, #0x300, lsl #16
  1048a0:	14000005 	b	1048b4 <mhu_secure_message_wait+0x4c>
  1048a4:	52800140 	mov	w0, #0xa                   	// #10
  1048a8:	940001e0 	bl	105028 <udelay>
  1048ac:	17fffff5 	b	104880 <mhu_secure_message_wait+0x18>
  1048b0:	b9400040 	ldr	w0, [x2]
  1048b4:	b9400281 	ldr	w1, [x20]
  1048b8:	f240083f 	tst	x1, #0x7
  1048bc:	54ffffa1 	b.ne	1048b0 <mhu_secure_message_wait+0x48>  // b.any
  1048c0:	a94153f3 	ldp	x19, x20, [sp, #16]
  1048c4:	a8c27bfd 	ldp	x29, x30, [sp], #32
  1048c8:	d65f03c0 	ret

00000000001048cc <mhu_secure_message_end>:
  1048cc:	d2860e00 	mov	x0, #0x3070                	// #12400
  1048d0:	52800081 	mov	w1, #0x4                   	// #4
  1048d4:	f2a06000 	movk	x0, #0x300, lsl #16
  1048d8:	b9000001 	str	w1, [x0]
  1048dc:	b0fff900 	adrp	x0, 25000 <mhu_secure_message_lock>
  1048e0:	91000000 	add	x0, x0, #0x0
  1048e4:	140004e1 	b	105c68 <bakery_lock_release>

00000000001048e8 <scpi_secure_message_receive>:
  1048e8:	a9be7bfd 	stp	x29, x30, [sp, #-32]!
  1048ec:	910003fd 	mov	x29, sp
  1048f0:	f9000bf3 	str	x19, [sp, #16]
  1048f4:	aa0003f3 	mov	x19, x0
  1048f8:	97ffffdc 	bl	104868 <mhu_secure_message_wait>
  1048fc:	7100041f 	cmp	w0, #0x1
  104900:	54000120 	b.eq	104924 <scpi_secure_message_receive+0x3c>  // b.none
  104904:	2a0003e1 	mov	w1, w0
  104908:	90000040 	adrp	x0, 10c000 <__TEXT_END__>
  10490c:	91146800 	add	x0, x0, #0x51a
  104910:	94000de4 	bl	1080a0 <tf_log>
  104914:	12800000 	mov	w0, #0xffffffff            	// #-1
  104918:	f9400bf3 	ldr	x19, [sp, #16]
  10491c:	a8c27bfd 	ldp	x29, x30, [sp], #32
  104920:	d65f03c0 	ret
  104924:	d5033dbf 	dmb	ld
  104928:	d28fc001 	mov	x1, #0x7e00                	// #32256
  10492c:	aa1303e0 	mov	x0, x19
  104930:	d2800102 	mov	x2, #0x8                   	// #8
  104934:	f2a00221 	movk	x1, #0x11, lsl #16
  104938:	94001673 	bl	10a304 <memcpy>
  10493c:	52800000 	mov	w0, #0x0                   	// #0
  104940:	17fffff6 	b	104918 <scpi_secure_message_receive+0x30>

0000000000104944 <scpi_wait_ready>:
  104944:	a9bd7bfd 	stp	x29, x30, [sp, #-48]!
  104948:	52800000 	mov	w0, #0x0                   	// #0
  10494c:	910003fd 	mov	x29, sp
  104950:	f9000bf3 	str	x19, [sp, #16]
  104954:	97ffffac 	bl	104804 <mhu_secure_message_start>
  104958:	9100a3e0 	add	x0, sp, #0x28
  10495c:	97ffffe3 	bl	1048e8 <scpi_secure_message_receive>
  104960:	2a0003f3 	mov	w19, w0
  104964:	52800000 	mov	w0, #0x0                   	// #0
  104968:	97ffffd9 	bl	1048cc <mhu_secure_message_end>
  10496c:	35000373 	cbnz	w19, 1049d8 <scpi_wait_ready+0x94>
  104970:	b9402bf3 	ldr	w19, [sp, #40]
  104974:	12001a60 	and	w0, w19, #0x7f
  104978:	7100041f 	cmp	w0, #0x1
  10497c:	54000360 	b.eq	1049e8 <scpi_wait_ready+0xa4>  // b.none
  104980:	f94017e2 	ldr	x2, [sp, #40]
  104984:	90000040 	adrp	x0, 10c000 <__TEXT_END__>
  104988:	52800021 	mov	w1, #0x1                   	// #1
  10498c:	91152000 	add	x0, x0, #0x548
  104990:	12001842 	and	w2, w2, #0x7f
  104994:	52800153 	mov	w19, #0xa                   	// #10
  104998:	94000dc2 	bl	1080a0 <tf_log>
  10499c:	52800000 	mov	w0, #0x0                   	// #0
  1049a0:	b9002ff3 	str	w19, [sp, #44]
  1049a4:	97ffff98 	bl	104804 <mhu_secure_message_start>
  1049a8:	d28fe000 	mov	x0, #0x7f00                	// #32512
  1049ac:	9100a3e1 	add	x1, sp, #0x28
  1049b0:	d2800102 	mov	x2, #0x8                   	// #8
  1049b4:	f2a00220 	movk	x0, #0x11, lsl #16
  1049b8:	94001653 	bl	10a304 <memcpy>
  1049bc:	d5033ebf 	dmb	st
  1049c0:	52800000 	mov	w0, #0x0                   	// #0
  1049c4:	97ffffa3 	bl	104850 <mhu_secure_message_send>
  1049c8:	52800000 	mov	w0, #0x0                   	// #0
  1049cc:	97ffffc0 	bl	1048cc <mhu_secure_message_end>
  1049d0:	7100027f 	cmp	w19, #0x0
  1049d4:	5a9f03f3 	csetm	w19, ne  // ne = any
  1049d8:	2a1303e0 	mov	w0, w19
  1049dc:	f9400bf3 	ldr	x19, [sp, #16]
  1049e0:	a8c37bfd 	ldp	x29, x30, [sp], #48
  1049e4:	d65f03c0 	ret
  1049e8:	72102273 	ands	w19, w19, #0x1ff0000
  1049ec:	54fffd80 	b.eq	10499c <scpi_wait_ready+0x58>  // b.none
  1049f0:	f94017e1 	ldr	x1, [sp, #40]
  1049f4:	90000040 	adrp	x0, 10c000 <__TEXT_END__>
  1049f8:	52800073 	mov	w19, #0x3                   	// #3
  1049fc:	91162000 	add	x0, x0, #0x588
  104a00:	53106021 	ubfx	w1, w1, #16, #9
  104a04:	94000da7 	bl	1080a0 <tf_log>
  104a08:	17ffffe5 	b	10499c <scpi_wait_ready+0x58>

0000000000104a0c <scpi_set_css_power_state>:
  104a0c:	53103c63 	lsl	w3, w3, #16
  104a10:	a9be7bfd 	stp	x29, x30, [sp, #-32]!
  104a14:	2a023062 	orr	w2, w3, w2, lsl #12
  104a18:	12000c03 	and	w3, w0, #0xf
  104a1c:	53047c00 	lsr	w0, w0, #4
  104a20:	2a012061 	orr	w1, w3, w1, lsl #8
  104a24:	910003fd 	mov	x29, sp
  104a28:	2a010042 	orr	w2, w2, w1
  104a2c:	121c0c00 	and	w0, w0, #0xf0
  104a30:	f9000bf3 	str	x19, [sp, #16]
  104a34:	2a000053 	orr	w19, w2, w0
  104a38:	52800000 	mov	w0, #0x0                   	// #0
  104a3c:	97ffff72 	bl	104804 <mhu_secure_message_start>
  104a40:	d28fe001 	mov	x1, #0x7f00                	// #32512
  104a44:	52800062 	mov	w2, #0x3                   	// #3
  104a48:	f2a00221 	movk	x1, #0x11, lsl #16
  104a4c:	72a00082 	movk	w2, #0x4, lsl #16
  104a50:	b9400020 	ldr	w0, [x1]
  104a54:	12071800 	and	w0, w0, #0xfe000000
  104a58:	2a020000 	orr	w0, w0, w2
  104a5c:	b9000020 	str	w0, [x1]
  104a60:	d28fe100 	mov	x0, #0x7f08                	// #32520
  104a64:	f2a00220 	movk	x0, #0x11, lsl #16
  104a68:	b9000013 	str	w19, [x0]
  104a6c:	d5033ebf 	dmb	st
  104a70:	52800000 	mov	w0, #0x0                   	// #0
  104a74:	97ffff77 	bl	104850 <mhu_secure_message_send>
  104a78:	f9400bf3 	ldr	x19, [sp, #16]
  104a7c:	52800000 	mov	w0, #0x0                   	// #0
  104a80:	a8c27bfd 	ldp	x29, x30, [sp], #32
  104a84:	17ffff92 	b	1048cc <mhu_secure_message_end>

0000000000104a88 <scpi_get_css_power_state>:
  104a88:	a9bc7bfd 	stp	x29, x30, [sp, #-64]!
  104a8c:	721d101f 	tst	w0, #0xf8
  104a90:	910003fd 	mov	x29, sp
  104a94:	a90153f3 	stp	x19, x20, [sp, #16]
  104a98:	a9025bf5 	stp	x21, x22, [sp, #32]
  104a9c:	d3483c15 	ubfx	x21, x0, #8, #8
  104aa0:	7a4e0aa0 	ccmp	w21, #0xe, #0x0, eq  // eq = none
  104aa4:	5400062c 	b.gt	104b68 <scpi_get_css_power_state+0xe0>
  104aa8:	d28fe016 	mov	x22, #0x7f00                	// #32512
  104aac:	aa0103f3 	mov	x19, x1
  104ab0:	f2a00236 	movk	x22, #0x11, lsl #16
  104ab4:	aa0203f4 	mov	x20, x2
  104ab8:	52800000 	mov	w0, #0x0                   	// #0
  104abc:	97ffff52 	bl	104804 <mhu_secure_message_start>
  104ac0:	aa1603e0 	mov	x0, x22
  104ac4:	d2800101 	mov	x1, #0x8                   	// #8
  104ac8:	940012bf 	bl	1095c4 <zeromem>
  104acc:	b94002c0 	ldr	w0, [x22]
  104ad0:	52800081 	mov	w1, #0x4                   	// #4
  104ad4:	33001820 	bfxil	w0, w1, #0, #7
  104ad8:	b90002c0 	str	w0, [x22]
  104adc:	d5033ebf 	dmb	st
  104ae0:	52800000 	mov	w0, #0x0                   	// #0
  104ae4:	97ffff5b 	bl	104850 <mhu_secure_message_send>
  104ae8:	9100e3e0 	add	x0, sp, #0x38
  104aec:	97ffff7f 	bl	1048e8 <scpi_secure_message_receive>
  104af0:	b9403fe1 	ldr	w1, [sp, #60]
  104af4:	2a010000 	orr	w0, w0, w1
  104af8:	35000280 	cbnz	w0, 104b48 <scpi_get_css_power_state+0xc0>
  104afc:	f9401fe0 	ldr	x0, [sp, #56]
  104b00:	110006a1 	add	w1, w21, #0x1
  104b04:	53106000 	ubfx	w0, w0, #16, #9
  104b08:	6b01041f 	cmp	w0, w1, lsl #1
  104b0c:	540001eb 	b.lt	104b48 <scpi_get_css_power_state+0xc0>  // b.tstop
  104b10:	937f7ea0 	sbfiz	x0, x21, #1, #32
  104b14:	91445800 	add	x0, x0, #0x116, lsl #12
  104b18:	797c1000 	ldrh	w0, [x0, #7688]
  104b1c:	12000c01 	and	w1, w0, #0xf
  104b20:	6b15003f 	cmp	w1, w21
  104b24:	54000121 	b.ne	104b48 <scpi_get_css_power_state+0xc0>  // b.any
  104b28:	b4000074 	cbz	x20, 104b34 <scpi_get_css_power_state+0xac>
  104b2c:	d3441c01 	ubfx	x1, x0, #4, #4
  104b30:	b9000281 	str	w1, [x20]
  104b34:	b4000073 	cbz	x19, 104b40 <scpi_get_css_power_state+0xb8>
  104b38:	13087c00 	asr	w0, w0, #8
  104b3c:	b9000260 	str	w0, [x19]
  104b40:	52800013 	mov	w19, #0x0                   	// #0
  104b44:	14000002 	b	104b4c <scpi_get_css_power_state+0xc4>
  104b48:	12800013 	mov	w19, #0xffffffff            	// #-1
  104b4c:	52800000 	mov	w0, #0x0                   	// #0
  104b50:	97ffff5f 	bl	1048cc <mhu_secure_message_end>
  104b54:	2a1303e0 	mov	w0, w19
  104b58:	a94153f3 	ldp	x19, x20, [sp, #16]
  104b5c:	a9425bf5 	ldp	x21, x22, [sp, #32]
  104b60:	a8c47bfd 	ldp	x29, x30, [sp], #64
  104b64:	d65f03c0 	ret
  104b68:	12800013 	mov	w19, #0xffffffff            	// #-1
  104b6c:	17fffffa 	b	104b54 <scpi_get_css_power_state+0xcc>

0000000000104b70 <scpi_sys_power_state>:
  104b70:	a9bd7bfd 	stp	x29, x30, [sp, #-48]!
  104b74:	910003fd 	mov	x29, sp
  104b78:	f9000bf3 	str	x19, [sp, #16]
  104b7c:	2a0003f3 	mov	w19, w0
  104b80:	52800000 	mov	w0, #0x0                   	// #0
  104b84:	97ffff20 	bl	104804 <mhu_secure_message_start>
  104b88:	d28fe000 	mov	x0, #0x7f00                	// #32512
  104b8c:	528000a2 	mov	w2, #0x5                   	// #5
  104b90:	f2a00220 	movk	x0, #0x11, lsl #16
  104b94:	72a00022 	movk	w2, #0x1, lsl #16
  104b98:	b9400001 	ldr	w1, [x0]
  104b9c:	39002013 	strb	w19, [x0, #8]
  104ba0:	12071821 	and	w1, w1, #0xfe000000
  104ba4:	2a020021 	orr	w1, w1, w2
  104ba8:	b9000001 	str	w1, [x0]
  104bac:	d5033ebf 	dmb	st
  104bb0:	52800000 	mov	w0, #0x0                   	// #0
  104bb4:	97ffff27 	bl	104850 <mhu_secure_message_send>
  104bb8:	9100a3e0 	add	x0, sp, #0x28
  104bbc:	97ffff4b 	bl	1048e8 <scpi_secure_message_receive>
  104bc0:	34000060 	cbz	w0, 104bcc <scpi_sys_power_state+0x5c>
  104bc4:	528000e0 	mov	w0, #0x7                   	// #7
  104bc8:	b9002fe0 	str	w0, [sp, #44]
  104bcc:	52800000 	mov	w0, #0x0                   	// #0
  104bd0:	97ffff3f 	bl	1048cc <mhu_secure_message_end>
  104bd4:	b9402fe0 	ldr	w0, [sp, #44]
  104bd8:	f9400bf3 	ldr	x19, [sp, #16]
  104bdc:	a8c37bfd 	ldp	x29, x30, [sp], #48
  104be0:	d65f03c0 	ret

0000000000104be4 <gicd_read_igroupr>:
  104be4:	53057c21 	lsr	w1, w1, #5
  104be8:	91020000 	add	x0, x0, #0x80
  104bec:	d37e6821 	ubfiz	x1, x1, #2, #27
  104bf0:	b8606820 	ldr	w0, [x1, x0]
  104bf4:	d65f03c0 	ret

0000000000104bf8 <gicd_read_icfgr>:
  104bf8:	53047c21 	lsr	w1, w1, #4
  104bfc:	91300000 	add	x0, x0, #0xc00
  104c00:	d37e6c21 	ubfiz	x1, x1, #2, #28
  104c04:	b8606820 	ldr	w0, [x1, x0]
  104c08:	d65f03c0 	ret

0000000000104c0c <gicd_write_igroupr>:
  104c0c:	53057c21 	lsr	w1, w1, #5
  104c10:	91020000 	add	x0, x0, #0x80
  104c14:	d37e6821 	ubfiz	x1, x1, #2, #27
  104c18:	b8206822 	str	w2, [x1, x0]
  104c1c:	d65f03c0 	ret

0000000000104c20 <gicd_write_isenabler>:
  104c20:	53057c21 	lsr	w1, w1, #5
  104c24:	91040000 	add	x0, x0, #0x100
  104c28:	d37e6821 	ubfiz	x1, x1, #2, #27
  104c2c:	b8206822 	str	w2, [x1, x0]
  104c30:	d65f03c0 	ret

0000000000104c34 <gicd_write_icenabler>:
  104c34:	53057c21 	lsr	w1, w1, #5
  104c38:	91060000 	add	x0, x0, #0x180
  104c3c:	d37e6821 	ubfiz	x1, x1, #2, #27
  104c40:	b8206822 	str	w2, [x1, x0]
  104c44:	d65f03c0 	ret

0000000000104c48 <gicd_write_ipriorityr>:
  104c48:	927e7421 	and	x1, x1, #0xfffffffc
  104c4c:	91100000 	add	x0, x0, #0x400
  104c50:	b8206822 	str	w2, [x1, x0]
  104c54:	d65f03c0 	ret

0000000000104c58 <gicd_write_icfgr>:
  104c58:	53047c21 	lsr	w1, w1, #4
  104c5c:	91300000 	add	x0, x0, #0xc00
  104c60:	d37e6c21 	ubfiz	x1, x1, #2, #28
  104c64:	b8206822 	str	w2, [x1, x0]
  104c68:	d65f03c0 	ret

0000000000104c6c <gicd_clr_igroupr>:
  104c6c:	a9bf7bfd 	stp	x29, x30, [sp, #-16]!
  104c70:	2a0103e3 	mov	w3, w1
  104c74:	aa0003e4 	mov	x4, x0
  104c78:	910003fd 	mov	x29, sp
  104c7c:	97ffffda 	bl	104be4 <gicd_read_igroupr>
  104c80:	a8c17bfd 	ldp	x29, x30, [sp], #16
  104c84:	52800021 	mov	w1, #0x1                   	// #1
  104c88:	1ac32021 	lsl	w1, w1, w3
  104c8c:	0a210002 	bic	w2, w0, w1
  104c90:	2a0303e1 	mov	w1, w3
  104c94:	aa0403e0 	mov	x0, x4
  104c98:	17ffffdd 	b	104c0c <gicd_write_igroupr>

0000000000104c9c <gicd_set_isenabler>:
  104c9c:	52800022 	mov	w2, #0x1                   	// #1
  104ca0:	1ac12042 	lsl	w2, w2, w1
  104ca4:	17ffffdf 	b	104c20 <gicd_write_isenabler>

0000000000104ca8 <gicd_set_ipriorityr>:
  104ca8:	91100000 	add	x0, x0, #0x400
  104cac:	2a0103e1 	mov	w1, w1
  104cb0:	12001c42 	and	w2, w2, #0xff
  104cb4:	38216802 	strb	w2, [x0, x1]
  104cb8:	d65f03c0 	ret

0000000000104cbc <gicd_set_icfgr>:
  104cbc:	a9bf7bfd 	stp	x29, x30, [sp, #-16]!
  104cc0:	531f0c26 	ubfiz	w6, w1, #1, #4
  104cc4:	aa0003e5 	mov	x5, x0
  104cc8:	910003fd 	mov	x29, sp
  104ccc:	2a0103e4 	mov	w4, w1
  104cd0:	97ffffca 	bl	104bf8 <gicd_read_icfgr>
  104cd4:	a8c17bfd 	ldp	x29, x30, [sp], #16
  104cd8:	12000442 	and	w2, w2, #0x3
  104cdc:	52800063 	mov	w3, #0x3                   	// #3
  104ce0:	2a0403e1 	mov	w1, w4
  104ce4:	1ac62063 	lsl	w3, w3, w6
  104ce8:	0a230003 	bic	w3, w0, w3
  104cec:	1ac62042 	lsl	w2, w2, w6
  104cf0:	aa0503e0 	mov	x0, x5
  104cf4:	2a030042 	orr	w2, w2, w3
  104cf8:	17ffffd8 	b	104c58 <gicd_write_icfgr>

0000000000104cfc <gicv2_spis_configure_defaults>:
  104cfc:	a9bd7bfd 	stp	x29, x30, [sp, #-48]!
  104d00:	910003fd 	mov	x29, sp
  104d04:	a90153f3 	stp	x19, x20, [sp, #16]
  104d08:	aa0003f4 	mov	x20, x0
  104d0c:	b9400413 	ldr	w19, [x0, #4]
  104d10:	f90013f5 	str	x21, [sp, #32]
  104d14:	52800415 	mov	w21, #0x20                  	// #32
  104d18:	531b1273 	ubfiz	w19, w19, #5, #5
  104d1c:	11008273 	add	w19, w19, #0x20
  104d20:	6b1302bf 	cmp	w21, w19
  104d24:	54000163 	b.cc	104d50 <gicv2_spis_configure_defaults+0x54>  // b.lo, b.ul, b.last
  104d28:	52800415 	mov	w21, #0x20                  	// #32
  104d2c:	6b1302bf 	cmp	w21, w19
  104d30:	540001c3 	b.cc	104d68 <gicv2_spis_configure_defaults+0x6c>  // b.lo, b.ul, b.last
  104d34:	52800415 	mov	w21, #0x20                  	// #32
  104d38:	6b1302bf 	cmp	w21, w19
  104d3c:	54000223 	b.cc	104d80 <gicv2_spis_configure_defaults+0x84>  // b.lo, b.ul, b.last
  104d40:	a94153f3 	ldp	x19, x20, [sp, #16]
  104d44:	f94013f5 	ldr	x21, [sp, #32]
  104d48:	a8c37bfd 	ldp	x29, x30, [sp], #48
  104d4c:	d65f03c0 	ret
  104d50:	2a1503e1 	mov	w1, w21
  104d54:	aa1403e0 	mov	x0, x20
  104d58:	12800002 	mov	w2, #0xffffffff            	// #-1
  104d5c:	110082b5 	add	w21, w21, #0x20
  104d60:	97ffffab 	bl	104c0c <gicd_write_igroupr>
  104d64:	17ffffef 	b	104d20 <gicv2_spis_configure_defaults+0x24>
  104d68:	2a1503e1 	mov	w1, w21
  104d6c:	aa1403e0 	mov	x0, x20
  104d70:	3201c3e2 	mov	w2, #0x80808080            	// #-2139062144
  104d74:	110012b5 	add	w21, w21, #0x4
  104d78:	97ffffb4 	bl	104c48 <gicd_write_ipriorityr>
  104d7c:	17ffffec 	b	104d2c <gicv2_spis_configure_defaults+0x30>
  104d80:	2a1503e1 	mov	w1, w21
  104d84:	aa1403e0 	mov	x0, x20
  104d88:	52800002 	mov	w2, #0x0                   	// #0
  104d8c:	110042b5 	add	w21, w21, #0x10
  104d90:	97ffffb2 	bl	104c58 <gicd_write_icfgr>
  104d94:	17ffffe9 	b	104d38 <gicv2_spis_configure_defaults+0x3c>

0000000000104d98 <gicv2_secure_spis_configure_props>:
  104d98:	a9bd7bfd 	stp	x29, x30, [sp, #-48]!
  104d9c:	910003fd 	mov	x29, sp
  104da0:	a90153f3 	stp	x19, x20, [sp, #16]
  104da4:	aa0003f4 	mov	x20, x0
  104da8:	aa0103f3 	mov	x19, x1
  104dac:	a9025bf5 	stp	x21, x22, [sp, #32]
  104db0:	8b224835 	add	x21, x1, w2, uxtw #2
  104db4:	91200016 	add	x22, x0, #0x800
  104db8:	eb15027f 	cmp	x19, x21
  104dbc:	540000a1 	b.ne	104dd0 <gicv2_secure_spis_configure_props+0x38>  // b.any
  104dc0:	a94153f3 	ldp	x19, x20, [sp, #16]
  104dc4:	a9425bf5 	ldp	x21, x22, [sp, #32]
  104dc8:	a8c37bfd 	ldp	x29, x30, [sp], #48
  104dcc:	d65f03c0 	ret
  104dd0:	b9400261 	ldr	w1, [x19]
  104dd4:	12002421 	and	w1, w1, #0x3ff
  104dd8:	71007c3f 	cmp	w1, #0x1f
  104ddc:	540002c9 	b.ls	104e34 <gicv2_secure_spis_configure_props+0x9c>  // b.plast
  104de0:	aa1403e0 	mov	x0, x20
  104de4:	97ffffa2 	bl	104c6c <gicd_clr_igroupr>
  104de8:	b9400261 	ldr	w1, [x19]
  104dec:	aa1403e0 	mov	x0, x20
  104df0:	d34a4422 	ubfx	x2, x1, #10, #8
  104df4:	12002421 	and	w1, w1, #0x3ff
  104df8:	97ffffac 	bl	104ca8 <gicd_set_ipriorityr>
  104dfc:	b9400260 	ldr	w0, [x19]
  104e00:	b94002c1 	ldr	w1, [x22]
  104e04:	92402400 	and	x0, x0, #0x3ff
  104e08:	12001c21 	and	w1, w1, #0xff
  104e0c:	38366801 	strb	w1, [x0, x22]
  104e10:	aa1403e0 	mov	x0, x20
  104e14:	b9400261 	ldr	w1, [x19]
  104e18:	d3545422 	ubfx	x2, x1, #20, #2
  104e1c:	12002421 	and	w1, w1, #0x3ff
  104e20:	97ffffa7 	bl	104cbc <gicd_set_icfgr>
  104e24:	b9400261 	ldr	w1, [x19]
  104e28:	aa1403e0 	mov	x0, x20
  104e2c:	12002421 	and	w1, w1, #0x3ff
  104e30:	97ffff9b 	bl	104c9c <gicd_set_isenabler>
  104e34:	91001273 	add	x19, x19, #0x4
  104e38:	17ffffe0 	b	104db8 <gicv2_secure_spis_configure_props+0x20>

0000000000104e3c <gicv2_secure_ppi_sgi_setup_props>:
  104e3c:	a9bc7bfd 	stp	x29, x30, [sp, #-64]!
  104e40:	910003fd 	mov	x29, sp
  104e44:	a90153f3 	stp	x19, x20, [sp, #16]
  104e48:	aa0103f3 	mov	x19, x1
  104e4c:	aa0003f4 	mov	x20, x0
  104e50:	52800001 	mov	w1, #0x0                   	// #0
  104e54:	a9025bf5 	stp	x21, x22, [sp, #32]
  104e58:	2a0203f5 	mov	w21, w2
  104e5c:	52800016 	mov	w22, #0x0                   	// #0
  104e60:	12800002 	mov	w2, #0xffffffff            	// #-1
  104e64:	f9001bf7 	str	x23, [sp, #48]
  104e68:	97ffff73 	bl	104c34 <gicd_write_icenabler>
  104e6c:	2a1603e1 	mov	w1, w22
  104e70:	aa1403e0 	mov	x0, x20
  104e74:	3201c3e2 	mov	w2, #0x80808080            	// #-2139062144
  104e78:	110012d6 	add	w22, w22, #0x4
  104e7c:	97ffff73 	bl	104c48 <gicd_write_ipriorityr>
  104e80:	710082df 	cmp	w22, #0x20
  104e84:	54ffff41 	b.ne	104e6c <gicv2_secure_ppi_sgi_setup_props+0x30>  // b.any
  104e88:	8b354a75 	add	x21, x19, w21, uxtw #2
  104e8c:	52800016 	mov	w22, #0x0                   	// #0
  104e90:	52800037 	mov	w23, #0x1                   	// #1
  104e94:	eb1302bf 	cmp	x21, x19
  104e98:	540001a1 	b.ne	104ecc <gicv2_secure_ppi_sgi_setup_props+0x90>  // b.any
  104e9c:	2a3603e2 	mvn	w2, w22
  104ea0:	aa1403e0 	mov	x0, x20
  104ea4:	52800001 	mov	w1, #0x0                   	// #0
  104ea8:	97ffff59 	bl	104c0c <gicd_write_igroupr>
  104eac:	2a1603e2 	mov	w2, w22
  104eb0:	aa1403e0 	mov	x0, x20
  104eb4:	a94153f3 	ldp	x19, x20, [sp, #16]
  104eb8:	52800001 	mov	w1, #0x0                   	// #0
  104ebc:	a9425bf5 	ldp	x21, x22, [sp, #32]
  104ec0:	f9401bf7 	ldr	x23, [sp, #48]
  104ec4:	a8c47bfd 	ldp	x29, x30, [sp], #64
  104ec8:	17ffff56 	b	104c20 <gicd_write_isenabler>
  104ecc:	b9400262 	ldr	w2, [x19]
  104ed0:	12002441 	and	w1, w2, #0x3ff
  104ed4:	71007c3f 	cmp	w1, #0x1f
  104ed8:	540001e8 	b.hi	104f14 <gicv2_secure_ppi_sgi_setup_props+0xd8>  // b.pmore
  104edc:	110fc020 	add	w0, w1, #0x3f0
  104ee0:	12002400 	and	w0, w0, #0x3ff
  104ee4:	71003c1f 	cmp	w0, #0xf
  104ee8:	54000088 	b.hi	104ef8 <gicv2_secure_ppi_sgi_setup_props+0xbc>  // b.pmore
  104eec:	d3545442 	ubfx	x2, x2, #20, #2
  104ef0:	aa1403e0 	mov	x0, x20
  104ef4:	97ffff72 	bl	104cbc <gicd_set_icfgr>
  104ef8:	b9400261 	ldr	w1, [x19]
  104efc:	1ac122e0 	lsl	w0, w23, w1
  104f00:	d34a4422 	ubfx	x2, x1, #10, #8
  104f04:	2a0002d6 	orr	w22, w22, w0
  104f08:	12002421 	and	w1, w1, #0x3ff
  104f0c:	aa1403e0 	mov	x0, x20
  104f10:	97ffff66 	bl	104ca8 <gicd_set_ipriorityr>
  104f14:	91001273 	add	x19, x19, #0x4
  104f18:	17ffffdf 	b	104e94 <gicv2_secure_ppi_sgi_setup_props+0x58>

0000000000104f1c <gicv2_cpuif_enable>:
  104f1c:	d0fff8e0 	adrp	x0, 22000 <percpu_data>
  104f20:	52801fe1 	mov	w1, #0xff                  	// #255
  104f24:	f944f400 	ldr	x0, [x0, #2536]
  104f28:	f9400400 	ldr	x0, [x0, #8]
  104f2c:	b9000401 	str	w1, [x0, #4]
  104f30:	52803d21 	mov	w1, #0x1e9                 	// #489
  104f34:	b9000001 	str	w1, [x0]
  104f38:	d65f03c0 	ret

0000000000104f3c <gicv2_cpuif_disable>:
  104f3c:	d0fff8e0 	adrp	x0, 22000 <percpu_data>
  104f40:	f944f400 	ldr	x0, [x0, #2536]
  104f44:	f9400401 	ldr	x1, [x0, #8]
  104f48:	b9400020 	ldr	w0, [x1]
  104f4c:	121e7400 	and	w0, w0, #0xfffffffc
  104f50:	321b0c00 	orr	w0, w0, #0x1e0
  104f54:	b9000020 	str	w0, [x1]
  104f58:	d65f03c0 	ret

0000000000104f5c <gicv2_pcpu_distif_init>:
  104f5c:	a9be7bfd 	stp	x29, x30, [sp, #-32]!
  104f60:	910003fd 	mov	x29, sp
  104f64:	f9000bf3 	str	x19, [sp, #16]
  104f68:	d0fff8f3 	adrp	x19, 22000 <percpu_data>
  104f6c:	f944f660 	ldr	x0, [x19, #2536]
  104f70:	b9402802 	ldr	w2, [x0, #40]
  104f74:	f9401001 	ldr	x1, [x0, #32]
  104f78:	f9400000 	ldr	x0, [x0]
  104f7c:	97ffffb0 	bl	104e3c <gicv2_secure_ppi_sgi_setup_props>
  104f80:	f944f660 	ldr	x0, [x19, #2536]
  104f84:	f9400001 	ldr	x1, [x0]
  104f88:	b9400020 	ldr	w0, [x1]
  104f8c:	37000060 	tbnz	w0, #0, 104f98 <gicv2_pcpu_distif_init+0x3c>
  104f90:	32000000 	orr	w0, w0, #0x1
  104f94:	b9000020 	str	w0, [x1]
  104f98:	f9400bf3 	ldr	x19, [sp, #16]
  104f9c:	a8c27bfd 	ldp	x29, x30, [sp], #32
  104fa0:	d65f03c0 	ret

0000000000104fa4 <gicv2_distif_init>:
  104fa4:	a9be7bfd 	stp	x29, x30, [sp, #-32]!
  104fa8:	910003fd 	mov	x29, sp
  104fac:	a90153f3 	stp	x19, x20, [sp, #16]
  104fb0:	d0fff8f4 	adrp	x20, 22000 <percpu_data>
  104fb4:	f944f680 	ldr	x0, [x20, #2536]
  104fb8:	f9400000 	ldr	x0, [x0]
  104fbc:	b9400013 	ldr	w19, [x0]
  104fc0:	121e7661 	and	w1, w19, #0xfffffffc
  104fc4:	b9000001 	str	w1, [x0]
  104fc8:	32000273 	orr	w19, w19, #0x1
  104fcc:	97ffff4c 	bl	104cfc <gicv2_spis_configure_defaults>
  104fd0:	f944f680 	ldr	x0, [x20, #2536]
  104fd4:	b9402802 	ldr	w2, [x0, #40]
  104fd8:	f9401001 	ldr	x1, [x0, #32]
  104fdc:	f9400000 	ldr	x0, [x0]
  104fe0:	97ffff6e 	bl	104d98 <gicv2_secure_spis_configure_props>
  104fe4:	f944f680 	ldr	x0, [x20, #2536]
  104fe8:	f9400000 	ldr	x0, [x0]
  104fec:	b9000013 	str	w19, [x0]
  104ff0:	a94153f3 	ldp	x19, x20, [sp, #16]
  104ff4:	a8c27bfd 	ldp	x29, x30, [sp], #32
  104ff8:	d65f03c0 	ret

0000000000104ffc <gicv2_driver_init>:
  104ffc:	f9400001 	ldr	x1, [x0]
  105000:	b94fe821 	ldr	w1, [x1, #4072]
  105004:	b0fff8e1 	adrp	x1, 22000 <percpu_data>
  105008:	f904f420 	str	x0, [x1, #2536]
  10500c:	d65f03c0 	ret

0000000000105010 <gicv2_get_pending_interrupt_type>:
  105010:	b0fff8e0 	adrp	x0, 22000 <percpu_data>
  105014:	f944f400 	ldr	x0, [x0, #2536]
  105018:	f9400400 	ldr	x0, [x0, #8]
  10501c:	b9401800 	ldr	w0, [x0, #24]
  105020:	12002400 	and	w0, w0, #0x3ff
  105024:	d65f03c0 	ret

0000000000105028 <udelay>:
  105028:	a9bd7bfd 	stp	x29, x30, [sp, #-48]!
  10502c:	910003fd 	mov	x29, sp
  105030:	f90013f5 	str	x21, [sp, #32]
  105034:	b0fff8f5 	adrp	x21, 22000 <percpu_data>
  105038:	a90153f3 	stp	x19, x20, [sp, #16]
  10503c:	2a0003f3 	mov	w19, w0
  105040:	f944faa0 	ldr	x0, [x21, #2544]
  105044:	f9400000 	ldr	x0, [x0]
  105048:	d63f0000 	blr	x0
  10504c:	2a0003f4 	mov	w20, w0
  105050:	f944faa1 	ldr	x1, [x21, #2544]
  105054:	29410420 	ldp	w0, w1, [x1, #8]
  105058:	d1000402 	sub	x2, x0, #0x1
  10505c:	9ba10a73 	umaddl	x19, w19, w1, x2
  105060:	9ac00a73 	udiv	x19, x19, x0
  105064:	91000673 	add	x19, x19, #0x1
  105068:	f944faa0 	ldr	x0, [x21, #2544]
  10506c:	f9400000 	ldr	x0, [x0]
  105070:	d63f0000 	blr	x0
  105074:	4b000281 	sub	w1, w20, w0
  105078:	eb13003f 	cmp	x1, x19
  10507c:	54ffff63 	b.cc	105068 <udelay+0x40>  // b.lo, b.ul, b.last
  105080:	a94153f3 	ldp	x19, x20, [sp, #16]
  105084:	f94013f5 	ldr	x21, [sp, #32]
  105088:	a8c37bfd 	ldp	x29, x30, [sp], #48
  10508c:	d65f03c0 	ret

0000000000105090 <mdelay>:
  105090:	52807d01 	mov	w1, #0x3e8                 	// #1000
  105094:	1b017c00 	mul	w0, w0, w1
  105098:	17ffffe4 	b	105028 <udelay>

000000000010509c <timer_init>:
  10509c:	b0fff8e1 	adrp	x1, 22000 <percpu_data>
  1050a0:	f904f820 	str	x0, [x1, #2544]
  1050a4:	d65f03c0 	ret

00000000001050a8 <get_timer_value>:
  1050a8:	d53be020 	mrs	x0, cntpct_el0
  1050ac:	2a2003e0 	mvn	w0, w0
  1050b0:	d65f03c0 	ret

00000000001050b4 <generic_delay_timer_init_args>:
  1050b4:	2a0003e4 	mov	w4, w0
  1050b8:	b0fff8e3 	adrp	x3, 22000 <percpu_data>
  1050bc:	9127e060 	add	x0, x3, #0x9f8
  1050c0:	90000002 	adrp	x2, 105000 <gicv2_driver_init+0x4>
  1050c4:	9102a042 	add	x2, x2, #0xa8
  1050c8:	f904fc62 	str	x2, [x3, #2552]
  1050cc:	29010404 	stp	w4, w1, [x0, #8]
  1050d0:	17fffff3 	b	10509c <timer_init>

00000000001050d4 <generic_delay_timer_init>:
  1050d4:	a9bf7bfd 	stp	x29, x30, [sp, #-16]!
  1050d8:	910003fd 	mov	x29, sp
  1050dc:	94000e95 	bl	108b30 <plat_get_syscnt_freq2>
  1050e0:	2a0003e1 	mov	w1, w0
  1050e4:	52884800 	mov	w0, #0x4240                	// #16960
  1050e8:	528000c3 	mov	w3, #0x6                   	// #6
  1050ec:	72a001e0 	movk	w0, #0xf, lsl #16
  1050f0:	52800142 	mov	w2, #0xa                   	// #10
  1050f4:	1ac20824 	udiv	w4, w1, w2
  1050f8:	1b028485 	msub	w5, w4, w2, w1
  1050fc:	350000a5 	cbnz	w5, 105110 <generic_delay_timer_init+0x3c>
  105100:	1ac20800 	udiv	w0, w0, w2
  105104:	2a0403e1 	mov	w1, w4
  105108:	71000463 	subs	w3, w3, #0x1
  10510c:	54ffff41 	b.ne	1050f4 <generic_delay_timer_init+0x20>  // b.any
  105110:	a8c17bfd 	ldp	x29, x30, [sp], #16
  105114:	17ffffe8 	b	1050b4 <generic_delay_timer_init_args>

0000000000105118 <mentor_i2c_lost_arbitration>:
  105118:	b0fff8e1 	adrp	x1, 22000 <percpu_data>
  10511c:	f9450421 	ldr	x1, [x1, #2568]
  105120:	b9401021 	ldr	w1, [x1, #16]
  105124:	b9000001 	str	w1, [x0]
  105128:	12800440 	mov	w0, #0xffffffdd            	// #-35
  10512c:	12197821 	and	w1, w1, #0xffffffbf
  105130:	7100e03f 	cmp	w1, #0x38
  105134:	1a9f0000 	csel	w0, w0, wzr, eq  // eq = none
  105138:	d65f03c0 	ret

000000000010513c <mentor_i2c_interrupt_clear>:
  10513c:	b0fff8e0 	adrp	x0, 22000 <percpu_data>
  105140:	f9450401 	ldr	x1, [x0, #2568]
  105144:	b9400c20 	ldr	w0, [x1, #12]
  105148:	321d0000 	orr	w0, w0, #0x8
  10514c:	b9000c20 	str	w0, [x1, #12]
  105150:	52800020 	mov	w0, #0x1                   	// #1
  105154:	17ffffb5 	b	105028 <udelay>

0000000000105158 <mentor_i2c_stop_bit_set>:
  105158:	a9bd7bfd 	stp	x29, x30, [sp, #-48]!
  10515c:	910003fd 	mov	x29, sp
  105160:	f9000bf3 	str	x19, [sp, #16]
  105164:	b0fff8f3 	adrp	x19, 22000 <percpu_data>
  105168:	f9450661 	ldr	x1, [x19, #2568]
  10516c:	b9400c20 	ldr	w0, [x1, #12]
  105170:	321c0000 	orr	w0, w0, #0x10
  105174:	b9000c20 	str	w0, [x1, #12]
  105178:	97fffff1 	bl	10513c <mentor_i2c_interrupt_clear>
  10517c:	f9450661 	ldr	x1, [x19, #2568]
  105180:	52800000 	mov	w0, #0x0                   	// #0
  105184:	b9400c22 	ldr	w2, [x1, #12]
  105188:	36200162 	tbz	w2, #4, 1051b4 <mentor_i2c_stop_bit_set+0x5c>
  10518c:	11000400 	add	w0, w0, #0x1
  105190:	7114041f 	cmp	w0, #0x501
  105194:	54ffff81 	b.ne	105184 <mentor_i2c_stop_bit_set+0x2c>  // b.any
  105198:	f0000020 	adrp	x0, 10c000 <__TEXT_END__>
  10519c:	91170c00 	add	x0, x0, #0x5c3
  1051a0:	94000bc0 	bl	1080a0 <tf_log>
  1051a4:	12800760 	mov	w0, #0xffffffc4            	// #-60
  1051a8:	f9400bf3 	ldr	x19, [sp, #16]
  1051ac:	a8c37bfd 	ldp	x29, x30, [sp], #48
  1051b0:	d65f03c0 	ret
  1051b4:	7114001f 	cmp	w0, #0x500
  1051b8:	54ffff00 	b.eq	105198 <mentor_i2c_stop_bit_set+0x40>  // b.none
  1051bc:	b9400c20 	ldr	w0, [x1, #12]
  1051c0:	362000c0 	tbz	w0, #4, 1051d8 <mentor_i2c_stop_bit_set+0x80>
  1051c4:	f0000020 	adrp	x0, 10c000 <__TEXT_END__>
  1051c8:	91170c00 	add	x0, x0, #0x5c3
  1051cc:	94000bb5 	bl	1080a0 <tf_log>
  1051d0:	12800000 	mov	w0, #0xffffffff            	// #-1
  1051d4:	17fffff5 	b	1051a8 <mentor_i2c_stop_bit_set+0x50>
  1051d8:	9100b3e0 	add	x0, sp, #0x2c
  1051dc:	97ffffcf 	bl	105118 <mentor_i2c_lost_arbitration>
  1051e0:	34000140 	cbz	w0, 105208 <mentor_i2c_stop_bit_set+0xb0>
  1051e4:	b9402fe3 	ldr	w3, [sp, #44]
  1051e8:	528016c2 	mov	w2, #0xb6                  	// #182
  1051ec:	f0000021 	adrp	x1, 10c000 <__TEXT_END__>
  1051f0:	f0000020 	adrp	x0, 10c000 <__TEXT_END__>
  1051f4:	911c7021 	add	x1, x1, #0x71c
  1051f8:	91177c00 	add	x0, x0, #0x5df
  1051fc:	94000ba9 	bl	1080a0 <tf_log>
  105200:	12800440 	mov	w0, #0xffffffdd            	// #-35
  105204:	17ffffe9 	b	1051a8 <mentor_i2c_stop_bit_set+0x50>
  105208:	b9402fe1 	ldr	w1, [sp, #44]
  10520c:	7103e03f 	cmp	w1, #0xf8
  105210:	54fffcc0 	b.eq	1051a8 <mentor_i2c_stop_bit_set+0x50>  // b.none
  105214:	f0000020 	adrp	x0, 10c000 <__TEXT_END__>
  105218:	91182800 	add	x0, x0, #0x60a
  10521c:	94000ba1 	bl	1080a0 <tf_log>
  105220:	17ffffec 	b	1051d0 <mentor_i2c_stop_bit_set+0x78>

0000000000105224 <mentor_i2c_wait_interrupt>:
  105224:	b0fff8e0 	adrp	x0, 22000 <percpu_data>
  105228:	f9450401 	ldr	x1, [x0, #2568]
  10522c:	52800000 	mov	w0, #0x0                   	// #0
  105230:	b9400c22 	ldr	w2, [x1, #12]
  105234:	371800c2 	tbnz	w2, #3, 10524c <mentor_i2c_wait_interrupt+0x28>
  105238:	11000400 	add	w0, w0, #0x1
  10523c:	7114041f 	cmp	w0, #0x501
  105240:	54ffff81 	b.ne	105230 <mentor_i2c_wait_interrupt+0xc>  // b.any
  105244:	12800760 	mov	w0, #0xffffffc4            	// #-60
  105248:	d65f03c0 	ret
  10524c:	7114001f 	cmp	w0, #0x500
  105250:	12800760 	mov	w0, #0xffffffc4            	// #-60
  105254:	1a9f0000 	csel	w0, w0, wzr, eq  // eq = none
  105258:	17fffffc 	b	105248 <mentor_i2c_wait_interrupt+0x24>

000000000010525c <mentor_i2c_data_transmit>:
  10525c:	a9bb7bfd 	stp	x29, x30, [sp, #-80]!
  105260:	910003fd 	mov	x29, sp
  105264:	a90153f3 	stp	x19, x20, [sp, #16]
  105268:	2a0103f4 	mov	w20, w1
  10526c:	a9025bf5 	stp	x21, x22, [sp, #32]
  105270:	aa0003f6 	mov	x22, x0
  105274:	f9001bf7 	str	x23, [sp, #48]
  105278:	97ffffeb 	bl	105224 <mentor_i2c_wait_interrupt>
  10527c:	34000280 	cbz	w0, 1052cc <mentor_i2c_data_transmit+0x70>
  105280:	12800773 	mov	w19, #0xffffffc4            	// #-60
  105284:	f0000020 	adrp	x0, 10c000 <__TEXT_END__>
  105288:	9118c400 	add	x0, x0, #0x631
  10528c:	94000b85 	bl	1080a0 <tf_log>
  105290:	2a1303e0 	mov	w0, w19
  105294:	a94153f3 	ldp	x19, x20, [sp, #16]
  105298:	a9425bf5 	ldp	x21, x22, [sp, #32]
  10529c:	f9401bf7 	ldr	x23, [sp, #48]
  1052a0:	a8c57bfd 	ldp	x29, x30, [sp], #80
  1052a4:	d65f03c0 	ret
  1052a8:	b9404fe1 	ldr	w1, [sp, #76]
  1052ac:	910006b5 	add	x21, x21, #0x1
  1052b0:	7100a03f 	cmp	w1, #0x28
  1052b4:	54000120 	b.eq	1052d8 <mentor_i2c_data_transmit+0x7c>  // b.none
  1052b8:	f0000020 	adrp	x0, 10c000 <__TEXT_END__>
  1052bc:	12800013 	mov	w19, #0xffffffff            	// #-1
  1052c0:	91192c00 	add	x0, x0, #0x64b
  1052c4:	94000b77 	bl	1080a0 <tf_log>
  1052c8:	17fffff2 	b	105290 <mentor_i2c_data_transmit+0x34>
  1052cc:	2a0003f3 	mov	w19, w0
  1052d0:	d2800015 	mov	x21, #0x0                   	// #0
  1052d4:	b0fff8f7 	adrp	x23, 22000 <percpu_data>
  1052d8:	eb15029f 	cmp	x20, x21
  1052dc:	54fffda0 	b.eq	105290 <mentor_i2c_data_transmit+0x34>  // b.none
  1052e0:	f94506e0 	ldr	x0, [x23, #2568]
  1052e4:	38756ac1 	ldrb	w1, [x22, x21]
  1052e8:	b9000801 	str	w1, [x0, #8]
  1052ec:	97ffff94 	bl	10513c <mentor_i2c_interrupt_clear>
  1052f0:	97ffffcd 	bl	105224 <mentor_i2c_wait_interrupt>
  1052f4:	35fffc60 	cbnz	w0, 105280 <mentor_i2c_data_transmit+0x24>
  1052f8:	910133e0 	add	x0, sp, #0x4c
  1052fc:	97ffff87 	bl	105118 <mentor_i2c_lost_arbitration>
  105300:	34fffd40 	cbz	w0, 1052a8 <mentor_i2c_data_transmit+0x4c>
  105304:	b9404fe3 	ldr	w3, [sp, #76]
  105308:	52802f42 	mov	w2, #0x17a                 	// #378
  10530c:	f0000021 	adrp	x1, 10c000 <__TEXT_END__>
  105310:	f0000020 	adrp	x0, 10c000 <__TEXT_END__>
  105314:	911df021 	add	x1, x1, #0x77c
  105318:	91177c00 	add	x0, x0, #0x5df
  10531c:	12800453 	mov	w19, #0xffffffdd            	// #-35
  105320:	94000b60 	bl	1080a0 <tf_log>
  105324:	17ffffdb 	b	105290 <mentor_i2c_data_transmit+0x34>

0000000000105328 <mentor_i2c_start_bit_set>:
  105328:	a9bd7bfd 	stp	x29, x30, [sp, #-48]!
  10532c:	910003fd 	mov	x29, sp
  105330:	f9000bf3 	str	x19, [sp, #16]
  105334:	b0fff8f3 	adrp	x19, 22000 <percpu_data>
  105338:	f9450660 	ldr	x0, [x19, #2568]
  10533c:	b9400c02 	ldr	w2, [x0, #12]
  105340:	b9400c01 	ldr	w1, [x0, #12]
  105344:	321b0021 	orr	w1, w1, #0x20
  105348:	b9000c01 	str	w1, [x0, #12]
  10534c:	36180042 	tbz	w2, #3, 105354 <mentor_i2c_start_bit_set+0x2c>
  105350:	97ffff7b 	bl	10513c <mentor_i2c_interrupt_clear>
  105354:	97ffffb4 	bl	105224 <mentor_i2c_wait_interrupt>
  105358:	34000100 	cbz	w0, 105378 <mentor_i2c_start_bit_set+0x50>
  10535c:	f0000020 	adrp	x0, 10c000 <__TEXT_END__>
  105360:	9118c400 	add	x0, x0, #0x631
  105364:	94000b4f 	bl	1080a0 <tf_log>
  105368:	12800760 	mov	w0, #0xffffffc4            	// #-60
  10536c:	f9400bf3 	ldr	x19, [sp, #16]
  105370:	a8c37bfd 	ldp	x29, x30, [sp], #48
  105374:	d65f03c0 	ret
  105378:	f9450660 	ldr	x0, [x19, #2568]
  10537c:	b9400c00 	ldr	w0, [x0, #12]
  105380:	362800c0 	tbz	w0, #5, 105398 <mentor_i2c_start_bit_set+0x70>
  105384:	f0000020 	adrp	x0, 10c000 <__TEXT_END__>
  105388:	9119b000 	add	x0, x0, #0x66c
  10538c:	94000b45 	bl	1080a0 <tf_log>
  105390:	12800000 	mov	w0, #0xffffffff            	// #-1
  105394:	17fffff6 	b	10536c <mentor_i2c_start_bit_set+0x44>
  105398:	9100b3e0 	add	x0, sp, #0x2c
  10539c:	97ffff5f 	bl	105118 <mentor_i2c_lost_arbitration>
  1053a0:	34000140 	cbz	w0, 1053c8 <mentor_i2c_start_bit_set+0xa0>
  1053a4:	b9402fe3 	ldr	w3, [sp, #44]
  1053a8:	52801182 	mov	w2, #0x8c                  	// #140
  1053ac:	f0000021 	adrp	x1, 10c000 <__TEXT_END__>
  1053b0:	f0000020 	adrp	x0, 10c000 <__TEXT_END__>
  1053b4:	911d8c21 	add	x1, x1, #0x763
  1053b8:	91177c00 	add	x0, x0, #0x5df
  1053bc:	94000b39 	bl	1080a0 <tf_log>
  1053c0:	12800440 	mov	w0, #0xffffffdd            	// #-35
  1053c4:	17ffffea 	b	10536c <mentor_i2c_start_bit_set+0x44>
  1053c8:	b9402fe1 	ldr	w1, [sp, #44]
  1053cc:	7100203f 	cmp	w1, #0x8
  1053d0:	7a501824 	ccmp	w1, #0x10, #0x4, ne  // ne = any
  1053d4:	54fffcc0 	b.eq	10536c <mentor_i2c_start_bit_set+0x44>  // b.none
  1053d8:	f0000020 	adrp	x0, 10c000 <__TEXT_END__>
  1053dc:	911a2400 	add	x0, x0, #0x689
  1053e0:	94000b30 	bl	1080a0 <tf_log>
  1053e4:	17ffffeb 	b	105390 <mentor_i2c_start_bit_set+0x68>

00000000001053e8 <mentor_i2c_address_set>:
  1053e8:	a9bd7bfd 	stp	x29, x30, [sp, #-48]!
  1053ec:	531f1c00 	ubfiz	w0, w0, #1, #8
  1053f0:	2a010000 	orr	w0, w0, w1
  1053f4:	910003fd 	mov	x29, sp
  1053f8:	f9000bf3 	str	x19, [sp, #16]
  1053fc:	2a0103f3 	mov	w19, w1
  105400:	b0fff8e1 	adrp	x1, 22000 <percpu_data>
  105404:	f9450421 	ldr	x1, [x1, #2568]
  105408:	b9000820 	str	w0, [x1, #8]
  10540c:	52800020 	mov	w0, #0x1                   	// #1
  105410:	97ffff06 	bl	105028 <udelay>
  105414:	97ffff4a 	bl	10513c <mentor_i2c_interrupt_clear>
  105418:	97ffff83 	bl	105224 <mentor_i2c_wait_interrupt>
  10541c:	34000100 	cbz	w0, 10543c <mentor_i2c_address_set+0x54>
  105420:	f0000020 	adrp	x0, 10c000 <__TEXT_END__>
  105424:	9118c400 	add	x0, x0, #0x631
  105428:	94000b1e 	bl	1080a0 <tf_log>
  10542c:	12800760 	mov	w0, #0xffffffc4            	// #-60
  105430:	f9400bf3 	ldr	x19, [sp, #16]
  105434:	a8c37bfd 	ldp	x29, x30, [sp], #48
  105438:	d65f03c0 	ret
  10543c:	9100b3e0 	add	x0, sp, #0x2c
  105440:	97ffff36 	bl	105118 <mentor_i2c_lost_arbitration>
  105444:	34000140 	cbz	w0, 10546c <mentor_i2c_address_set+0x84>
  105448:	b9402fe3 	ldr	w3, [sp, #44]
  10544c:	52801a82 	mov	w2, #0xd4                  	// #212
  105450:	f0000021 	adrp	x1, 10c000 <__TEXT_END__>
  105454:	f0000020 	adrp	x0, 10c000 <__TEXT_END__>
  105458:	911d3021 	add	x1, x1, #0x74c
  10545c:	91177c00 	add	x0, x0, #0x5df
  105460:	94000b10 	bl	1080a0 <tf_log>
  105464:	12800440 	mov	w0, #0xffffffdd            	// #-35
  105468:	17fffff2 	b	105430 <mentor_i2c_address_set+0x48>
  10546c:	b9402fe0 	ldr	w0, [sp, #44]
  105470:	7101001f 	cmp	w0, #0x40
  105474:	540000c0 	b.eq	10548c <mentor_i2c_address_set+0xa4>  // b.none
  105478:	7100067f 	cmp	w19, #0x1
  10547c:	540000c0 	b.eq	105494 <mentor_i2c_address_set+0xac>  // b.none
  105480:	7100601f 	cmp	w0, #0x18
  105484:	5a9f03e0 	csetm	w0, ne  // ne = any
  105488:	17ffffea 	b	105430 <mentor_i2c_address_set+0x48>
  10548c:	51000660 	sub	w0, w19, #0x1
  105490:	17ffffe8 	b	105430 <mentor_i2c_address_set+0x48>
  105494:	12800000 	mov	w0, #0xffffffff            	// #-1
  105498:	17ffffe6 	b	105430 <mentor_i2c_address_set+0x48>

000000000010549c <i2c_init>:
  10549c:	a9be7bfd 	stp	x29, x30, [sp, #-32]!
  1054a0:	910003fd 	mov	x29, sp
  1054a4:	f9000bf3 	str	x19, [sp, #16]
  1054a8:	b0fff8f3 	adrp	x19, 22000 <percpu_data>
  1054ac:	b900181f 	str	wzr, [x0, #24]
  1054b0:	f9050660 	str	x0, [x19, #2568]
  1054b4:	52801900 	mov	w0, #0xc8                  	// #200
  1054b8:	97fffedc 	bl	105028 <udelay>
  1054bc:	5286c00d 	mov	w13, #0x3600                	// #13824
  1054c0:	5290d406 	mov	w6, #0x86a0                	// #34464
  1054c4:	52800000 	mov	w0, #0x0                   	// #0
  1054c8:	52800008 	mov	w8, #0x0                   	// #0
  1054cc:	1280000a 	mov	w10, #0xffffffff            	// #-1
  1054d0:	52800001 	mov	w1, #0x0                   	// #0
  1054d4:	5280004c 	mov	w12, #0x2                   	// #2
  1054d8:	5280014b 	mov	w11, #0xa                   	// #10
  1054dc:	72a02dcd 	movk	w13, #0x16e, lsl #16
  1054e0:	72a00026 	movk	w6, #0x1, lsl #16
  1054e4:	1ac12184 	lsl	w4, w12, w1
  1054e8:	2a0003e9 	mov	w9, w0
  1054ec:	52800003 	mov	w3, #0x0                   	// #0
  1054f0:	1b0b7c84 	mul	w4, w4, w11
  1054f4:	2a0403e5 	mov	w5, w4
  1054f8:	14000002 	b	105500 <i2c_init+0x64>
  1054fc:	2a0003e9 	mov	w9, w0
  105500:	1ac509a7 	udiv	w7, w13, w5
  105504:	2a0303e0 	mov	w0, w3
  105508:	11000463 	add	w3, w3, #0x1
  10550c:	6b0700c2 	subs	w2, w6, w7
  105510:	5a825442 	cneg	w2, w2, mi  // mi = first
  105514:	6b0600ff 	cmp	w7, w6
  105518:	7a4a9042 	ccmp	w2, w10, #0x2, ls  // ls = plast
  10551c:	540002c3 	b.cc	105574 <i2c_init+0xd8>  // b.lo, b.ul, b.last
  105520:	2a0903e0 	mov	w0, w9
  105524:	0b0400a5 	add	w5, w5, w4
  105528:	7100407f 	cmp	w3, #0x10
  10552c:	54fffe81 	b.ne	1054fc <i2c_init+0x60>  // b.any
  105530:	11000421 	add	w1, w1, #0x1
  105534:	7100203f 	cmp	w1, #0x8
  105538:	54fffd61 	b.ne	1054e4 <i2c_init+0x48>  // b.any
  10553c:	f9450661 	ldr	x1, [x19, #2568]
  105540:	2a000d00 	orr	w0, w8, w0, lsl #3
  105544:	f9400bf3 	ldr	x19, [sp, #16]
  105548:	b9001420 	str	w0, [x1, #20]
  10554c:	52800880 	mov	w0, #0x44                  	// #68
  105550:	b9000c20 	str	w0, [x1, #12]
  105554:	b900043f 	str	wzr, [x1, #4]
  105558:	b900003f 	str	wzr, [x1]
  10555c:	b9400c20 	ldr	w0, [x1, #12]
  105560:	32190000 	orr	w0, w0, #0x80
  105564:	b9000c20 	str	w0, [x1, #12]
  105568:	52800140 	mov	w0, #0xa                   	// #10
  10556c:	a8c27bfd 	ldp	x29, x30, [sp], #32
  105570:	17fffeae 	b	105028 <udelay>
  105574:	2a0103e8 	mov	w8, w1
  105578:	2a0203ea 	mov	w10, w2
  10557c:	17ffffea 	b	105524 <i2c_init+0x88>

0000000000105580 <i2c_read>:
  105580:	a9b87bfd 	stp	x29, x30, [sp, #-128]!
  105584:	7100085f 	cmp	w2, #0x2
  105588:	910003fd 	mov	x29, sp
  10558c:	a90153f3 	stp	x19, x20, [sp, #16]
  105590:	2a0203f4 	mov	w20, w2
  105594:	52800013 	mov	w19, #0x0                   	// #0
  105598:	a9025bf5 	stp	x21, x22, [sp, #32]
  10559c:	52800056 	mov	w22, #0x2                   	// #2
  1055a0:	2a0103f5 	mov	w21, w1
  1055a4:	1a9f06d6 	csinc	w22, w22, wzr, eq  // eq = none
  1055a8:	a90363f7 	stp	x23, x24, [sp, #48]
  1055ac:	2a0403f8 	mov	w24, w4
  1055b0:	a9046bf9 	stp	x25, x26, [sp, #64]
  1055b4:	f0000039 	adrp	x25, 10c000 <__TEXT_END__>
  1055b8:	12001c1a 	and	w26, w0, #0xff
  1055bc:	911b4739 	add	x25, x25, #0x6d1
  1055c0:	a90573fb 	stp	x27, x28, [sp, #80]
  1055c4:	b0fff8fb 	adrp	x27, 22000 <percpu_data>
  1055c8:	f90037e3 	str	x3, [sp, #104]
  1055cc:	11000673 	add	w19, w19, #0x1
  1055d0:	97ffff56 	bl	105328 <mentor_i2c_start_bit_set>
  1055d4:	35000bc0 	cbnz	w0, 10574c <i2c_read+0x1cc>
  1055d8:	35000254 	cbnz	w20, 105620 <i2c_read+0xa0>
  1055dc:	2a1a03e0 	mov	w0, w26
  1055e0:	52800021 	mov	w1, #0x1                   	// #1
  1055e4:	97ffff81 	bl	1053e8 <mentor_i2c_address_set>
  1055e8:	2a0003fc 	mov	w28, w0
  1055ec:	350003e0 	cbnz	w0, 105668 <i2c_read+0xe8>
  1055f0:	97ffff0d 	bl	105224 <mentor_i2c_wait_interrupt>
  1055f4:	2a1803f7 	mov	w23, w24
  1055f8:	f94037fc 	ldr	x28, [sp, #104]
  1055fc:	34000c00 	cbz	w0, 10577c <i2c_read+0x1fc>
  105600:	f0000020 	adrp	x0, 10c000 <__TEXT_END__>
  105604:	1280077c 	mov	w28, #0xffffffc4            	// #-60
  105608:	9118c400 	add	x0, x0, #0x631
  10560c:	94000aa5 	bl	1080a0 <tf_log>
  105610:	14000016 	b	105668 <i2c_read+0xe8>
  105614:	52800020 	mov	w0, #0x1                   	// #1
  105618:	97fffe84 	bl	105028 <udelay>
  10561c:	17ffffec 	b	1055cc <i2c_read+0x4c>
  105620:	2a1a03e0 	mov	w0, w26
  105624:	52800001 	mov	w1, #0x0                   	// #0
  105628:	97ffff70 	bl	1053e8 <mentor_i2c_address_set>
  10562c:	2a0003fc 	mov	w28, w0
  105630:	350001c0 	cbnz	w0, 105668 <i2c_read+0xe8>
  105634:	12001ea0 	and	w0, w21, #0xff
  105638:	71000a9f 	cmp	w20, #0x2
  10563c:	540004a1 	b.ne	1056d0 <i2c_read+0x150>  // b.any
  105640:	5ac006a0 	rev16	w0, w21
  105644:	7900f3e0 	strh	w0, [sp, #120]
  105648:	2a1603e1 	mov	w1, w22
  10564c:	9101e3e0 	add	x0, sp, #0x78
  105650:	97ffff03 	bl	10525c <mentor_i2c_data_transmit>
  105654:	2a0003fc 	mov	w28, w0
  105658:	35000080 	cbnz	w0, 105668 <i2c_read+0xe8>
  10565c:	97ffff33 	bl	105328 <mentor_i2c_start_bit_set>
  105660:	2a0003fc 	mov	w28, w0
  105664:	34fffbc0 	cbz	w0, 1055dc <i2c_read+0x5c>
  105668:	710f9e7f 	cmp	w19, #0x3e7
  10566c:	12800440 	mov	w0, #0xffffffdd            	// #-35
  105670:	7a409380 	ccmp	w28, w0, #0x0, ls  // ls = plast
  105674:	54fffd00 	b.eq	105614 <i2c_read+0x94>  // b.none
  105678:	710fa27f 	cmp	w19, #0x3e8
  10567c:	540000c1 	b.ne	105694 <i2c_read+0x114>  // b.any
  105680:	1280001c 	mov	w28, #0xffffffff            	// #-1
  105684:	2a1303e1 	mov	w1, w19
  105688:	f0000020 	adrp	x0, 10c000 <__TEXT_END__>
  10568c:	911bb400 	add	x0, x0, #0x6ed
  105690:	94000a84 	bl	1080a0 <tf_log>
  105694:	b0fff8e0 	adrp	x0, 22000 <percpu_data>
  105698:	f9450401 	ldr	x1, [x0, #2568]
  10569c:	b9400c20 	ldr	w0, [x1, #12]
  1056a0:	321e0000 	orr	w0, w0, #0x4
  1056a4:	b9000c20 	str	w0, [x1, #12]
  1056a8:	52800020 	mov	w0, #0x1                   	// #1
  1056ac:	97fffe5f 	bl	105028 <udelay>
  1056b0:	2a1c03e0 	mov	w0, w28
  1056b4:	a94153f3 	ldp	x19, x20, [sp, #16]
  1056b8:	a9425bf5 	ldp	x21, x22, [sp, #32]
  1056bc:	a94363f7 	ldp	x23, x24, [sp, #48]
  1056c0:	a9446bf9 	ldp	x25, x26, [sp, #64]
  1056c4:	a94573fb 	ldp	x27, x28, [sp, #80]
  1056c8:	a8c87bfd 	ldp	x29, x30, [sp], #128
  1056cc:	d65f03c0 	ret
  1056d0:	3901e3e0 	strb	w0, [sp, #120]
  1056d4:	17ffffdd 	b	105648 <i2c_read+0xc8>
  1056d8:	710006ff 	cmp	w23, #0x1
  1056dc:	540000a1 	b.ne	1056f0 <i2c_read+0x170>  // b.any
  1056e0:	f9450761 	ldr	x1, [x27, #2568]
  1056e4:	b9400c20 	ldr	w0, [x1, #12]
  1056e8:	121d7800 	and	w0, w0, #0xfffffffb
  1056ec:	b9000c20 	str	w0, [x1, #12]
  1056f0:	97fffe93 	bl	10513c <mentor_i2c_interrupt_clear>
  1056f4:	97fffecc 	bl	105224 <mentor_i2c_wait_interrupt>
  1056f8:	35fff840 	cbnz	w0, 105600 <i2c_read+0x80>
  1056fc:	9101e3e0 	add	x0, sp, #0x78
  105700:	97fffe86 	bl	105118 <mentor_i2c_lost_arbitration>
  105704:	34000140 	cbz	w0, 10572c <i2c_read+0x1ac>
  105708:	b9407be3 	ldr	w3, [sp, #120]
  10570c:	528028c2 	mov	w2, #0x146                 	// #326
  105710:	f0000021 	adrp	x1, 10c000 <__TEXT_END__>
  105714:	f0000020 	adrp	x0, 10c000 <__TEXT_END__>
  105718:	911cd021 	add	x1, x1, #0x734
  10571c:	91177c00 	add	x0, x0, #0x5df
  105720:	1280045c 	mov	w28, #0xffffffdd            	// #-35
  105724:	94000a5f 	bl	1080a0 <tf_log>
  105728:	17ffffd0 	b	105668 <i2c_read+0xe8>
  10572c:	b9407be1 	ldr	w1, [sp, #120]
  105730:	7101403f 	cmp	w1, #0x50
  105734:	54000180 	b.eq	105764 <i2c_read+0x1e4>  // b.none
  105738:	710006ff 	cmp	w23, #0x1
  10573c:	540000c0 	b.eq	105754 <i2c_read+0x1d4>  // b.none
  105740:	f0000020 	adrp	x0, 10c000 <__TEXT_END__>
  105744:	911ac400 	add	x0, x0, #0x6b1
  105748:	94000a56 	bl	1080a0 <tf_log>
  10574c:	1280001c 	mov	w28, #0xffffffff            	// #-1
  105750:	17ffffc6 	b	105668 <i2c_read+0xe8>
  105754:	7101603f 	cmp	w1, #0x58
  105758:	540000a0 	b.eq	10576c <i2c_read+0x1ec>  // b.none
  10575c:	aa1903e0 	mov	x0, x25
  105760:	17fffffa 	b	105748 <i2c_read+0x1c8>
  105764:	710006ff 	cmp	w23, #0x1
  105768:	54ffffa0 	b.eq	10575c <i2c_read+0x1dc>  // b.none
  10576c:	f9450760 	ldr	x0, [x27, #2568]
  105770:	510006f7 	sub	w23, w23, #0x1
  105774:	b9400800 	ldr	w0, [x0, #8]
  105778:	38001780 	strb	w0, [x28], #1
  10577c:	35fffaf7 	cbnz	w23, 1056d8 <i2c_read+0x158>
  105780:	97fffe76 	bl	105158 <mentor_i2c_stop_bit_set>
  105784:	2a0003fc 	mov	w28, w0
  105788:	17ffffb8 	b	105668 <i2c_read+0xe8>

000000000010578c <i2c_write>:
  10578c:	a9b97bfd 	stp	x29, x30, [sp, #-112]!
  105790:	7100085f 	cmp	w2, #0x2
  105794:	910003fd 	mov	x29, sp
  105798:	a90153f3 	stp	x19, x20, [sp, #16]
  10579c:	5ac00434 	rev16	w20, w1
  1057a0:	a9025bf5 	stp	x21, x22, [sp, #32]
  1057a4:	2a0203f6 	mov	w22, w2
  1057a8:	52800015 	mov	w21, #0x0                   	// #0
  1057ac:	a90363f7 	stp	x23, x24, [sp, #48]
  1057b0:	52800057 	mov	w23, #0x2                   	// #2
  1057b4:	aa0303f8 	mov	x24, x3
  1057b8:	1a9f06f7 	csinc	w23, w23, wzr, eq  // eq = none
  1057bc:	a9046bf9 	stp	x25, x26, [sp, #64]
  1057c0:	2a0403f9 	mov	w25, w4
  1057c4:	a90573fb 	stp	x27, x28, [sp, #80]
  1057c8:	12001c1b 	and	w27, w0, #0xff
  1057cc:	12001c3c 	and	w28, w1, #0xff
  1057d0:	1280045a 	mov	w26, #0xffffffdd            	// #-35
  1057d4:	110006b5 	add	w21, w21, #0x1
  1057d8:	97fffed4 	bl	105328 <mentor_i2c_start_bit_set>
  1057dc:	35000600 	cbnz	w0, 10589c <i2c_write+0x110>
  1057e0:	2a1b03e0 	mov	w0, w27
  1057e4:	52800001 	mov	w1, #0x0                   	// #0
  1057e8:	97ffff00 	bl	1053e8 <mentor_i2c_address_set>
  1057ec:	2a0003f3 	mov	w19, w0
  1057f0:	350002a0 	cbnz	w0, 105844 <i2c_write+0xb8>
  1057f4:	35000196 	cbnz	w22, 105824 <i2c_write+0x98>
  1057f8:	2a1903e1 	mov	w1, w25
  1057fc:	aa1803e0 	mov	x0, x24
  105800:	97fffe97 	bl	10525c <mentor_i2c_data_transmit>
  105804:	2a0003f3 	mov	w19, w0
  105808:	350001e0 	cbnz	w0, 105844 <i2c_write+0xb8>
  10580c:	97fffe53 	bl	105158 <mentor_i2c_stop_bit_set>
  105810:	2a0003f3 	mov	w19, w0
  105814:	1400000c 	b	105844 <i2c_write+0xb8>
  105818:	52800020 	mov	w0, #0x1                   	// #1
  10581c:	97fffe03 	bl	105028 <udelay>
  105820:	17ffffed 	b	1057d4 <i2c_write+0x48>
  105824:	71000adf 	cmp	w22, #0x2
  105828:	54000361 	b.ne	105894 <i2c_write+0x108>  // b.any
  10582c:	7900d3f4 	strh	w20, [sp, #104]
  105830:	2a1703e1 	mov	w1, w23
  105834:	9101a3e0 	add	x0, sp, #0x68
  105838:	97fffe89 	bl	10525c <mentor_i2c_data_transmit>
  10583c:	2a0003f3 	mov	w19, w0
  105840:	34fffdc0 	cbz	w0, 1057f8 <i2c_write+0x6c>
  105844:	710f9ebf 	cmp	w21, #0x3e7
  105848:	7a5a9260 	ccmp	w19, w26, #0x0, ls  // ls = plast
  10584c:	54fffe60 	b.eq	105818 <i2c_write+0x8c>  // b.none
  105850:	710fa2bf 	cmp	w21, #0x3e8
  105854:	540000c1 	b.ne	10586c <i2c_write+0xe0>  // b.any
  105858:	12800013 	mov	w19, #0xffffffff            	// #-1
  10585c:	2a1503e1 	mov	w1, w21
  105860:	f0000020 	adrp	x0, 10c000 <__TEXT_END__>
  105864:	911bb400 	add	x0, x0, #0x6ed
  105868:	94000a0e 	bl	1080a0 <tf_log>
  10586c:	52800020 	mov	w0, #0x1                   	// #1
  105870:	97fffdee 	bl	105028 <udelay>
  105874:	2a1303e0 	mov	w0, w19
  105878:	a94153f3 	ldp	x19, x20, [sp, #16]
  10587c:	a9425bf5 	ldp	x21, x22, [sp, #32]
  105880:	a94363f7 	ldp	x23, x24, [sp, #48]
  105884:	a9446bf9 	ldp	x25, x26, [sp, #64]
  105888:	a94573fb 	ldp	x27, x28, [sp, #80]
  10588c:	a8c77bfd 	ldp	x29, x30, [sp], #112
  105890:	d65f03c0 	ret
  105894:	3901a3fc 	strb	w28, [sp, #104]
  105898:	17ffffe6 	b	105830 <i2c_write+0xa4>
  10589c:	12800013 	mov	w19, #0xffffffff            	// #-1
  1058a0:	17ffffe9 	b	105844 <i2c_write+0xb8>

00000000001058a4 <cm_init>:
  1058a4:	d65f03c0 	ret

00000000001058a8 <cm_setup_context>:
  1058a8:	a9bd7bfd 	stp	x29, x30, [sp, #-48]!
  1058ac:	910003fd 	mov	x29, sp
  1058b0:	a9025bf5 	stp	x21, x22, [sp, #32]
  1058b4:	aa0003f5 	mov	x21, x0
  1058b8:	b9400436 	ldr	w22, [x1, #4]
  1058bc:	a90153f3 	stp	x19, x20, [sp, #16]
  1058c0:	aa0103f4 	mov	x20, x1
  1058c4:	120002d6 	and	w22, w22, #0x1
  1058c8:	d2804401 	mov	x1, #0x220                 	// #544
  1058cc:	94000f3e 	bl	1095c4 <zeromem>
  1058d0:	d53e1113 	mrs	x19, scr_el3
  1058d4:	1281a0e0 	mov	w0, #0xfffff2f8            	// #-3336
  1058d8:	8a000273 	and	x19, x19, x0
  1058dc:	34000056 	cbz	w22, 1058e4 <cm_setup_context+0x3c>
  1058e0:	b2400273 	orr	x19, x19, #0x1
  1058e4:	b9401280 	ldr	w0, [x20, #16]
  1058e8:	37200040 	tbnz	w0, #4, 1058f0 <cm_setup_context+0x48>
  1058ec:	b2760273 	orr	x19, x19, #0x400
  1058f0:	b9400680 	ldr	w0, [x20, #4]
  1058f4:	36100040 	tbz	w0, #2, 1058fc <cm_setup_context+0x54>
  1058f8:	b2750273 	orr	x19, x19, #0x800
  1058fc:	92407e73 	and	x19, x19, #0xffffffff
  105900:	927cfa73 	and	x19, x19, #0xfffffffffffffff7
  105904:	34000056 	cbz	w22, 10590c <cm_setup_context+0x64>
  105908:	b2700673 	orr	x19, x19, #0x30000
  10590c:	d5380420 	mrs	x0, id_aa64pfr1_el1
  105910:	53082c00 	ubfx	w0, w0, #8, #4
  105914:	7100041f 	cmp	w0, #0x1
  105918:	54000061 	b.ne	105924 <cm_setup_context+0x7c>  // b.any
  10591c:	b2660273 	orr	x19, x19, #0x4000000
  105920:	14000005 	b	105934 <cm_setup_context+0x8c>
  105924:	7100081f 	cmp	w0, #0x2
  105928:	1a9f17e0 	cset	w0, eq  // eq = none
  10592c:	6a16001f 	tst	w0, w22
  105930:	54ffff61 	b.ne	10591c <cm_setup_context+0x74>  // b.any
  105934:	2a1603e0 	mov	w0, w22
  105938:	97fffa79 	bl	10431c <get_scr_el3_from_routing_model>
  10593c:	b9401282 	ldr	w2, [x20, #16]
  105940:	aa000273 	orr	x19, x19, x0
  105944:	121c0043 	and	w3, w2, #0x10
  105948:	37200082 	tbnz	w2, #4, 105958 <cm_setup_context+0xb0>
  10594c:	d3420c40 	ubfx	x0, x2, #2, #2
  105950:	7100081f 	cmp	w0, #0x2
  105954:	540000a0 	b.eq	105968 <cm_setup_context+0xc0>  // b.none
  105958:	f9400a80 	ldr	x0, [x20, #16]
  10595c:	92401000 	and	x0, x0, #0x1f
  105960:	f100681f 	cmp	x0, #0x1a
  105964:	54000041 	b.ne	10596c <cm_setup_context+0xc4>  // b.any
  105968:	b2780273 	orr	x19, x19, #0x100
  10596c:	35000176 	cbnz	w22, 105998 <cm_setup_context+0xf0>
  105970:	d3420c40 	ubfx	x0, x2, #2, #2
  105974:	7100081f 	cmp	w0, #0x2
  105978:	54000101 	b.ne	105998 <cm_setup_context+0xf0>  // b.any
  10597c:	b26e0273 	orr	x19, x19, #0x40000
  105980:	340000c3 	cbz	w3, 105998 <cm_setup_context+0xf0>
  105984:	f0000020 	adrp	x0, 10c000 <__TEXT_END__>
  105988:	911e5400 	add	x0, x0, #0x795
  10598c:	940009c5 	bl	1080a0 <tf_log>
  105990:	94000a2b 	bl	10823c <console_flush>
  105994:	94000e98 	bl	1093f4 <do_panic>
  105998:	b9400681 	ldr	w1, [x20, #4]
  10599c:	d2810000 	mov	x0, #0x800                 	// #2048
  1059a0:	d2810704 	mov	x4, #0x838                 	// #2104
  1059a4:	7100007f 	cmp	w3, #0x0
  1059a8:	f2a018a4 	movk	x4, #0xc5, lsl #16
  1059ac:	f2a61a00 	movk	x0, #0x30d0, lsl #16
  1059b0:	d3689c21 	lsl	x1, x1, #24
  1059b4:	92670021 	and	x1, x1, #0x2000000
  1059b8:	aa000020 	orr	x0, x1, x0
  1059bc:	aa040021 	orr	x1, x1, x4
  1059c0:	9a801021 	csel	x1, x1, x0, ne  // ne = any
  1059c4:	f900a2a1 	str	x1, [x21, #320]
  1059c8:	d5381020 	mrs	x0, actlr_el1
  1059cc:	f9400681 	ldr	x1, [x20, #8]
  1059d0:	2a0203e2 	mov	w2, w2
  1059d4:	f90082b3 	str	x19, [x21, #256]
  1059d8:	a91186a2 	stp	x2, x1, [x21, #280]
  1059dc:	91006281 	add	x1, x20, #0x18
  1059e0:	d2800802 	mov	x2, #0x40                  	// #64
  1059e4:	f900a6a0 	str	x0, [x21, #328]
  1059e8:	aa1503e0 	mov	x0, x21
  1059ec:	a94153f3 	ldp	x19, x20, [sp, #16]
  1059f0:	a9425bf5 	ldp	x21, x22, [sp, #32]
  1059f4:	a8c37bfd 	ldp	x29, x30, [sp], #48
  1059f8:	14001243 	b	10a304 <memcpy>

00000000001059fc <cm_init_context_by_index>:
  1059fc:	a9be7bfd 	stp	x29, x30, [sp, #-32]!
  105a00:	910003fd 	mov	x29, sp
  105a04:	f9000bf3 	str	x19, [sp, #16]
  105a08:	aa0103f3 	mov	x19, x1
  105a0c:	b9400421 	ldr	w1, [x1, #4]
  105a10:	12000021 	and	w1, w1, #0x1
  105a14:	97fff9f6 	bl	1041ec <cm_get_context_by_index>
  105a18:	aa1303e1 	mov	x1, x19
  105a1c:	f9400bf3 	ldr	x19, [sp, #16]
  105a20:	a8c27bfd 	ldp	x29, x30, [sp], #32
  105a24:	17ffffa1 	b	1058a8 <cm_setup_context>

0000000000105a28 <cm_init_my_context>:
  105a28:	a9be7bfd 	stp	x29, x30, [sp, #-32]!
  105a2c:	910003fd 	mov	x29, sp
  105a30:	f9000bf3 	str	x19, [sp, #16]
  105a34:	aa0003f3 	mov	x19, x0
  105a38:	b9400400 	ldr	w0, [x0, #4]
  105a3c:	12000000 	and	w0, w0, #0x1
  105a40:	97fff9e8 	bl	1041e0 <cm_get_context>
  105a44:	aa1303e1 	mov	x1, x19
  105a48:	f9400bf3 	ldr	x19, [sp, #16]
  105a4c:	a8c27bfd 	ldp	x29, x30, [sp], #32
  105a50:	17ffff96 	b	1058a8 <cm_setup_context>

0000000000105a54 <cm_el1_sysregs_context_restore>:
  105a54:	a9be7bfd 	stp	x29, x30, [sp, #-32]!
  105a58:	910003fd 	mov	x29, sp
  105a5c:	a90153f3 	stp	x19, x20, [sp, #16]
  105a60:	2a0003f3 	mov	w19, w0
  105a64:	97fff9df 	bl	1041e0 <cm_get_context>
  105a68:	9104c000 	add	x0, x0, #0x130
  105a6c:	94000daf 	bl	109128 <el1_sysregs_context_restore>
  105a70:	34000273 	cbz	w19, 105abc <cm_el1_sysregs_context_restore+0x68>
  105a74:	f0000033 	adrp	x19, 10c000 <__TEXT_END__>
  105a78:	f0000034 	adrp	x20, 10c000 <__TEXT_END__>
  105a7c:	912d6273 	add	x19, x19, #0xb58
  105a80:	912d6294 	add	x20, x20, #0xb58
  105a84:	eb14027f 	cmp	x19, x20
  105a88:	54000142 	b.cs	105ab0 <cm_el1_sysregs_context_restore+0x5c>  // b.hs, b.nlast
  105a8c:	f8408661 	ldr	x1, [x19], #8
  105a90:	d2800000 	mov	x0, #0x0                   	// #0
  105a94:	d63f0020 	blr	x1
  105a98:	17fffffb 	b	105a84 <cm_el1_sysregs_context_restore+0x30>
  105a9c:	f8408661 	ldr	x1, [x19], #8
  105aa0:	d2800000 	mov	x0, #0x0                   	// #0
  105aa4:	d63f0020 	blr	x1
  105aa8:	eb14027f 	cmp	x19, x20
  105aac:	54ffff83 	b.cc	105a9c <cm_el1_sysregs_context_restore+0x48>  // b.lo, b.ul, b.last
  105ab0:	a94153f3 	ldp	x19, x20, [sp, #16]
  105ab4:	a8c27bfd 	ldp	x29, x30, [sp], #32
  105ab8:	d65f03c0 	ret
  105abc:	f0000033 	adrp	x19, 10c000 <__TEXT_END__>
  105ac0:	f0000034 	adrp	x20, 10c000 <__TEXT_END__>
  105ac4:	912d6273 	add	x19, x19, #0xb58
  105ac8:	912d6294 	add	x20, x20, #0xb58
  105acc:	17fffff7 	b	105aa8 <cm_el1_sysregs_context_restore+0x54>

0000000000105ad0 <cm_set_next_eret_context>:
  105ad0:	a9bf7bfd 	stp	x29, x30, [sp, #-16]!
  105ad4:	910003fd 	mov	x29, sp
  105ad8:	97fff9c2 	bl	1041e0 <cm_get_context>
  105adc:	d50041bf 	msr	spsel, #0x1
  105ae0:	9100001f 	mov	sp, x0
  105ae4:	d50040bf 	msr	spsel, #0x0
  105ae8:	a8c17bfd 	ldp	x29, x30, [sp], #16
  105aec:	d65f03c0 	ret

0000000000105af0 <cm_prepare_el3_exit>:
  105af0:	a9be7bfd 	stp	x29, x30, [sp, #-32]!
  105af4:	910003fd 	mov	x29, sp
  105af8:	f9000bf3 	str	x19, [sp, #16]
  105afc:	2a0003f3 	mov	w19, w0
  105b00:	97fff9b8 	bl	1041e0 <cm_get_context>
  105b04:	7100067f 	cmp	w19, #0x1
  105b08:	54000141 	b.ne	105b30 <cm_prepare_el3_exit+0x40>  // b.any
  105b0c:	f9408001 	ldr	x1, [x0, #256]
  105b10:	92780022 	and	x2, x1, #0x100
  105b14:	364001a1 	tbz	w1, #8, 105b48 <cm_prepare_el3_exit+0x58>
  105b18:	f940a000 	ldr	x0, [x0, #320]
  105b1c:	d2810601 	mov	x1, #0x830                 	// #2096
  105b20:	f2a618a1 	movk	x1, #0x30c5, lsl #16
  105b24:	92670000 	and	x0, x0, #0x2000000
  105b28:	aa010000 	orr	x0, x0, x1
  105b2c:	d51c1000 	msr	sctlr_el2, x0
  105b30:	2a1303e0 	mov	w0, w19
  105b34:	97ffffc8 	bl	105a54 <cm_el1_sysregs_context_restore>
  105b38:	2a1303e0 	mov	w0, w19
  105b3c:	f9400bf3 	ldr	x19, [sp, #16]
  105b40:	a8c27bfd 	ldp	x29, x30, [sp], #32
  105b44:	17ffffe3 	b	105ad0 <cm_set_next_eret_context>
  105b48:	d5380400 	mrs	x0, id_aa64pfr0_el1
  105b4c:	f2780c1f 	tst	x0, #0xf00
  105b50:	54ffff00 	b.eq	105b30 <cm_prepare_el3_exit+0x40>  // b.none
  105b54:	d34a2821 	ubfx	x1, x1, #10, #1
  105b58:	d3618021 	lsl	x1, x1, #31
  105b5c:	b2580421 	orr	x1, x1, #0x30000000000
  105b60:	d51c1101 	msr	hcr_el2, x1
  105b64:	d2867fe0 	mov	x0, #0x33ff                	// #13311
  105b68:	d51c1140 	msr	cptr_el2, x0
  105b6c:	d2800060 	mov	x0, #0x3                   	// #3
  105b70:	d51ce100 	msr	cnthctl_el2, x0
  105b74:	d51ce062 	msr	cntvoff_el2, x2
  105b78:	d5380000 	mrs	x0, midr_el1
  105b7c:	d51c0000 	msr	vpidr_el2, x0
  105b80:	d53800a0 	mrs	x0, mpidr_el1
  105b84:	d51c00a0 	msr	vmpidr_el2, x0
  105b88:	d51c2102 	msr	vttbr_el2, x2
  105b8c:	d53b9c00 	mrs	x0, pmcr_el0
  105b90:	d34b3c00 	ubfx	x0, x0, #11, #5
  105b94:	d2a08041 	mov	x1, #0x4020000             	// #67239936
  105b98:	aa010000 	orr	x0, x0, x1
  105b9c:	d51c1120 	msr	mdcr_el2, x0
  105ba0:	d51c1162 	msr	hstr_el2, x2
  105ba4:	d51ce222 	msr	cnthp_ctl_el2, x2
  105ba8:	17ffffe2 	b	105b30 <cm_prepare_el3_exit+0x40>

0000000000105bac <bakery_lock_get>:
  105bac:	a9be7bfd 	stp	x29, x30, [sp, #-32]!
  105bb0:	910003fd 	mov	x29, sp
  105bb4:	f9000bf3 	str	x19, [sp, #16]
  105bb8:	aa0003f3 	mov	x19, x0
  105bbc:	94000f36 	bl	109894 <plat_my_core_pos>
  105bc0:	d37f7c04 	ubfiz	x4, x0, #1, #32
  105bc4:	52800021 	mov	w1, #0x1                   	// #1
  105bc8:	52800002 	mov	w2, #0x0                   	// #0
  105bcc:	78246a61 	strh	w1, [x19, x4]
  105bd0:	52800001 	mov	w1, #0x0                   	// #0
  105bd4:	2a0203e3 	mov	w3, w2
  105bd8:	11000442 	add	w2, w2, #0x1
  105bdc:	78637a63 	ldrh	w3, [x19, x3, lsl #1]
  105be0:	d3413c63 	ubfx	x3, x3, #1, #15
  105be4:	6b03003f 	cmp	w1, w3
  105be8:	1a832021 	csel	w1, w1, w3, cs  // cs = hs, nlast
  105bec:	7100105f 	cmp	w2, #0x4
  105bf0:	54ffff21 	b.ne	105bd4 <bakery_lock_get+0x28>  // b.any
  105bf4:	11000421 	add	w1, w1, #0x1
  105bf8:	531f3822 	ubfiz	w2, w1, #1, #15
  105bfc:	2a012001 	orr	w1, w0, w1, lsl #8
  105c00:	78246a62 	strh	w2, [x19, x4]
  105c04:	52800002 	mov	w2, #0x0                   	// #0
  105c08:	6b02001f 	cmp	w0, w2
  105c0c:	54000200 	b.eq	105c4c <bakery_lock_get+0xa0>  // b.none
  105c10:	d37f7c45 	ubfiz	x5, x2, #1, #32
  105c14:	78656a64 	ldrh	w4, [x19, x5]
  105c18:	8b050266 	add	x6, x19, x5
  105c1c:	12003c83 	and	w3, w4, #0xffff
  105c20:	3707ffa4 	tbnz	w4, #0, 105c14 <bakery_lock_get+0x68>
  105c24:	53017c63 	lsr	w3, w3, #1
  105c28:	34000123 	cbz	w3, 105c4c <bakery_lock_get+0xa0>
  105c2c:	2a032044 	orr	w4, w2, w3, lsl #8
  105c30:	6b04003f 	cmp	w1, w4
  105c34:	540000c9 	b.ls	105c4c <bakery_lock_get+0xa0>  // b.plast
  105c38:	d503205f 	wfe
  105c3c:	794000c4 	ldrh	w4, [x6]
  105c40:	d3413c84 	ubfx	x4, x4, #1, #15
  105c44:	6b04007f 	cmp	w3, w4
  105c48:	54ffff80 	b.eq	105c38 <bakery_lock_get+0x8c>  // b.none
  105c4c:	11000442 	add	w2, w2, #0x1
  105c50:	7100105f 	cmp	w2, #0x4
  105c54:	54fffda1 	b.ne	105c08 <bakery_lock_get+0x5c>  // b.any
  105c58:	d5033bbf 	dmb	ish
  105c5c:	f9400bf3 	ldr	x19, [sp, #16]
  105c60:	a8c27bfd 	ldp	x29, x30, [sp], #32
  105c64:	d65f03c0 	ret

0000000000105c68 <bakery_lock_release>:
  105c68:	a9be7bfd 	stp	x29, x30, [sp, #-32]!
  105c6c:	910003fd 	mov	x29, sp
  105c70:	f9000bf3 	str	x19, [sp, #16]
  105c74:	aa0003f3 	mov	x19, x0
  105c78:	94000f07 	bl	109894 <plat_my_core_pos>
  105c7c:	d5033bbf 	dmb	ish
  105c80:	2a0003e1 	mov	w1, w0
  105c84:	78217a7f 	strh	wzr, [x19, x1, lsl #1]
  105c88:	d5033f9f 	dsb	sy
  105c8c:	d503209f 	sev
  105c90:	f9400bf3 	ldr	x19, [sp, #16]
  105c94:	a8c27bfd 	ldp	x29, x30, [sp], #32
  105c98:	d65f03c0 	ret

0000000000105c9c <psci_set_req_local_pwr_state>:
  105c9c:	51000400 	sub	w0, w0, #0x1
  105ca0:	12001c42 	and	w2, w2, #0xff
  105ca4:	7100041f 	cmp	w0, #0x1
  105ca8:	54000128 	b.hi	105ccc <psci_set_req_local_pwr_state+0x30>  // b.pmore
  105cac:	b0fff8e3 	adrp	x3, 22000 <percpu_data>
  105cb0:	b94cc863 	ldr	w3, [x3, #3272]
  105cb4:	6b01007f 	cmp	w3, w1
  105cb8:	540000a9 	b.ls	105ccc <psci_set_req_local_pwr_state+0x30>  // b.plast
  105cbc:	b0fff8e3 	adrp	x3, 22000 <percpu_data>
  105cc0:	91355063 	add	x3, x3, #0xd54
  105cc4:	8b204860 	add	x0, x3, w0, uxtw #2
  105cc8:	38214802 	strb	w2, [x0, w1, uxtw]
  105ccc:	d65f03c0 	ret

0000000000105cd0 <psci_validate_power_state>:
  105cd0:	52bf9fc2 	mov	w2, #0xfcfe0000            	// #-50462720
  105cd4:	6a02001f 	tst	w0, w2
  105cd8:	540000c1 	b.ne	105cf0 <psci_validate_power_state+0x20>  // b.any
  105cdc:	b0fff8e2 	adrp	x2, 22000 <percpu_data>
  105ce0:	f9452842 	ldr	x2, [x2, #2640]
  105ce4:	f9402c42 	ldr	x2, [x2, #88]
  105ce8:	aa0203f0 	mov	x16, x2
  105cec:	d61f0200 	br	x16
  105cf0:	12800020 	mov	w0, #0xfffffffe            	// #-2
  105cf4:	d65f03c0 	ret

0000000000105cf8 <psci_query_sys_suspend_pwrstate>:
  105cf8:	b0fff8e1 	adrp	x1, 22000 <percpu_data>
  105cfc:	f9452821 	ldr	x1, [x1, #2640]
  105d00:	f9403421 	ldr	x1, [x1, #104]
  105d04:	aa0103f0 	mov	x16, x1
  105d08:	d61f0200 	br	x16

0000000000105d0c <psci_is_last_on_cpu>:
  105d0c:	a9bd7bfd 	stp	x29, x30, [sp, #-48]!
  105d10:	910003fd 	mov	x29, sp
  105d14:	a90153f3 	stp	x19, x20, [sp, #16]
  105d18:	b0fff8f4 	adrp	x20, 22000 <percpu_data>
  105d1c:	91332294 	add	x20, x20, #0xcc8
  105d20:	f90013f5 	str	x21, [sp, #32]
  105d24:	94000edc 	bl	109894 <plat_my_core_pos>
  105d28:	2a0003f5 	mov	w21, w0
  105d2c:	52800013 	mov	w19, #0x0                   	// #0
  105d30:	b9400280 	ldr	w0, [x20]
  105d34:	6b13001f 	cmp	w0, w19
  105d38:	540000c8 	b.hi	105d50 <psci_is_last_on_cpu+0x44>  // b.pmore
  105d3c:	52800020 	mov	w0, #0x1                   	// #1
  105d40:	a94153f3 	ldp	x19, x20, [sp, #16]
  105d44:	f94013f5 	ldr	x21, [sp, #32]
  105d48:	a8c37bfd 	ldp	x29, x30, [sp], #48
  105d4c:	d65f03c0 	ret
  105d50:	6b15027f 	cmp	w19, w21
  105d54:	54000061 	b.ne	105d60 <psci_is_last_on_cpu+0x54>  // b.any
  105d58:	11000673 	add	w19, w19, #0x1
  105d5c:	17fffff5 	b	105d30 <psci_is_last_on_cpu+0x24>
  105d60:	2a1303e0 	mov	w0, w19
  105d64:	94000d65 	bl	1092f8 <_cpu_data_by_index>
  105d68:	b9401800 	ldr	w0, [x0, #24]
  105d6c:	7100041f 	cmp	w0, #0x1
  105d70:	54ffff40 	b.eq	105d58 <psci_is_last_on_cpu+0x4c>  // b.none
  105d74:	52800000 	mov	w0, #0x0                   	// #0
  105d78:	17fffff2 	b	105d40 <psci_is_last_on_cpu+0x34>

0000000000105d7c <psci_init_req_local_pwr_states>:
  105d7c:	b0fff8e0 	adrp	x0, 22000 <percpu_data>
  105d80:	b0fff8e1 	adrp	x1, 22000 <percpu_data>
  105d84:	91355021 	add	x1, x1, #0xd54
  105d88:	52800043 	mov	w3, #0x2                   	// #2
  105d8c:	b94cc802 	ldr	w2, [x0, #3272]
  105d90:	d2800000 	mov	x0, #0x0                   	// #0
  105d94:	6b00005f 	cmp	w2, w0
  105d98:	54000089 	b.ls	105da8 <psci_init_req_local_pwr_states+0x2c>  // b.plast
  105d9c:	38216803 	strb	w3, [x0, x1]
  105da0:	91000400 	add	x0, x0, #0x1
  105da4:	17fffffc 	b	105d94 <psci_init_req_local_pwr_states+0x18>
  105da8:	b0fff8e1 	adrp	x1, 22000 <percpu_data>
  105dac:	91355021 	add	x1, x1, #0xd54
  105db0:	d2800000 	mov	x0, #0x0                   	// #0
  105db4:	52800044 	mov	w4, #0x2                   	// #2
  105db8:	6b00005f 	cmp	w2, w0
  105dbc:	540000a9 	b.ls	105dd0 <psci_init_req_local_pwr_states+0x54>  // b.plast
  105dc0:	8b000023 	add	x3, x1, x0
  105dc4:	91000400 	add	x0, x0, #0x1
  105dc8:	39001064 	strb	w4, [x3, #4]
  105dcc:	17fffffb 	b	105db8 <psci_init_req_local_pwr_states+0x3c>
  105dd0:	d65f03c0 	ret

0000000000105dd4 <psci_get_target_local_pwr_states>:
  105dd4:	a9be7bfd 	stp	x29, x30, [sp, #-32]!
  105dd8:	910003fd 	mov	x29, sp
  105ddc:	a90153f3 	stp	x19, x20, [sp, #16]
  105de0:	2a0003f4 	mov	w20, w0
  105de4:	aa0103f3 	mov	x19, x1
  105de8:	d53ed040 	mrs	x0, tpidr_el3
  105dec:	39408000 	ldrb	w0, [x0, #32]
  105df0:	39000020 	strb	w0, [x1]
  105df4:	94000ea8 	bl	109894 <plat_my_core_pos>
  105df8:	d37c7c00 	ubfiz	x0, x0, #4, #32
  105dfc:	b0fff8e1 	adrp	x1, 22000 <percpu_data>
  105e00:	91284021 	add	x1, x1, #0xa10
  105e04:	8b000021 	add	x1, x1, x0
  105e08:	90fff900 	adrp	x0, 25000 <mhu_secure_message_lock>
  105e0c:	91008000 	add	x0, x0, #0x20
  105e10:	b9400822 	ldr	w2, [x1, #8]
  105e14:	52800021 	mov	w1, #0x1                   	// #1
  105e18:	6b14003f 	cmp	w1, w20
  105e1c:	2a0103e3 	mov	w3, w1
  105e20:	540000e9 	b.ls	105e3c <psci_get_target_local_pwr_states+0x68>  // b.plast
  105e24:	8b030273 	add	x19, x19, x3
  105e28:	7100083f 	cmp	w1, #0x2
  105e2c:	54000169 	b.ls	105e58 <psci_get_target_local_pwr_states+0x84>  // b.plast
  105e30:	a94153f3 	ldp	x19, x20, [sp, #16]
  105e34:	a8c27bfd 	ldp	x29, x30, [sp], #32
  105e38:	d65f03c0 	ret
  105e3c:	d37c7c42 	ubfiz	x2, x2, #4, #32
  105e40:	11000421 	add	w1, w1, #0x1
  105e44:	8b020002 	add	x2, x0, x2
  105e48:	39403044 	ldrb	w4, [x2, #12]
  105e4c:	38236a64 	strb	w4, [x19, x3]
  105e50:	b9400842 	ldr	w2, [x2, #8]
  105e54:	17fffff1 	b	105e18 <psci_get_target_local_pwr_states+0x44>
  105e58:	11000421 	add	w1, w1, #0x1
  105e5c:	3800167f 	strb	wzr, [x19], #1
  105e60:	17fffff2 	b	105e28 <psci_get_target_local_pwr_states+0x54>

0000000000105e64 <psci_get_parent_pwr_domain_nodes>:
  105e64:	d37c7c03 	ubfiz	x3, x0, #4, #32
  105e68:	b0fff8e0 	adrp	x0, 22000 <percpu_data>
  105e6c:	91284000 	add	x0, x0, #0xa10
  105e70:	90fff904 	adrp	x4, 25000 <mhu_secure_message_lock>
  105e74:	8b030000 	add	x0, x0, x3
  105e78:	d1001042 	sub	x2, x2, #0x4
  105e7c:	91008084 	add	x4, x4, #0x20
  105e80:	d2800003 	mov	x3, #0x0                   	// #0
  105e84:	b9400800 	ldr	w0, [x0, #8]
  105e88:	91000463 	add	x3, x3, #0x1
  105e8c:	6b03003f 	cmp	w1, w3
  105e90:	54000042 	b.cs	105e98 <psci_get_parent_pwr_domain_nodes+0x34>  // b.hs, b.nlast
  105e94:	d65f03c0 	ret
  105e98:	b8237840 	str	w0, [x2, x3, lsl #2]
  105e9c:	d37c7c00 	ubfiz	x0, x0, #4, #32
  105ea0:	8b000080 	add	x0, x4, x0
  105ea4:	b9400800 	ldr	w0, [x0, #8]
  105ea8:	17fffff8 	b	105e88 <psci_get_parent_pwr_domain_nodes+0x24>

0000000000105eac <psci_set_pwr_domains_to_run>:
  105eac:	a9be7bfd 	stp	x29, x30, [sp, #-32]!
  105eb0:	910003fd 	mov	x29, sp
  105eb4:	f9000bf3 	str	x19, [sp, #16]
  105eb8:	2a0003f3 	mov	w19, w0
  105ebc:	94000e76 	bl	109894 <plat_my_core_pos>
  105ec0:	2a0003e1 	mov	w1, w0
  105ec4:	b0fff8e2 	adrp	x2, 22000 <percpu_data>
  105ec8:	91284042 	add	x2, x2, #0xa10
  105ecc:	d37c7c20 	ubfiz	x0, x1, #4, #32
  105ed0:	90fff906 	adrp	x6, 25000 <mhu_secure_message_lock>
  105ed4:	8b000042 	add	x2, x2, x0
  105ed8:	910080c6 	add	x6, x6, #0x20
  105edc:	52800025 	mov	w5, #0x1                   	// #1
  105ee0:	b9400844 	ldr	w4, [x2, #8]
  105ee4:	6b1300bf 	cmp	w5, w19
  105ee8:	54000169 	b.ls	105f14 <psci_set_pwr_domains_to_run+0x68>  // b.plast
  105eec:	d53ed040 	mrs	x0, tpidr_el3
  105ef0:	b900181f 	str	wzr, [x0, #24]
  105ef4:	d53ed040 	mrs	x0, tpidr_el3
  105ef8:	3900801f 	strb	wzr, [x0, #32]
  105efc:	d53ed040 	mrs	x0, tpidr_el3
  105f00:	f9400bf3 	ldr	x19, [sp, #16]
  105f04:	91006000 	add	x0, x0, #0x18
  105f08:	a8c27bfd 	ldp	x29, x30, [sp], #32
  105f0c:	d2800181 	mov	x1, #0xc                   	// #12
  105f10:	14000d44 	b	109420 <flush_dcache_range>
  105f14:	d37c7c84 	ubfiz	x4, x4, #4, #32
  105f18:	2a0503e0 	mov	w0, w5
  105f1c:	8b0400c4 	add	x4, x6, x4
  105f20:	52800002 	mov	w2, #0x0                   	// #0
  105f24:	110004a5 	add	w5, w5, #0x1
  105f28:	3900309f 	strb	wzr, [x4, #12]
  105f2c:	97ffff5c 	bl	105c9c <psci_set_req_local_pwr_state>
  105f30:	b9400884 	ldr	w4, [x4, #8]
  105f34:	17ffffec 	b	105ee4 <psci_set_pwr_domains_to_run+0x38>

0000000000105f38 <psci_do_state_coordination>:
  105f38:	a9ba7bfd 	stp	x29, x30, [sp, #-96]!
  105f3c:	910003fd 	mov	x29, sp
  105f40:	a90153f3 	stp	x19, x20, [sp, #16]
  105f44:	aa0103f3 	mov	x19, x1
  105f48:	a9025bf5 	stp	x21, x22, [sp, #32]
  105f4c:	2a0003f6 	mov	w22, w0
  105f50:	b0fff8f5 	adrp	x21, 22000 <percpu_data>
  105f54:	a90363f7 	stp	x23, x24, [sp, #48]
  105f58:	912842b5 	add	x21, x21, #0xa10
  105f5c:	90fff918 	adrp	x24, 25000 <mhu_secure_message_lock>
  105f60:	a9046bf9 	stp	x25, x26, [sp, #64]
  105f64:	91008318 	add	x24, x24, #0x20
  105f68:	b0fff8f9 	adrp	x25, 22000 <percpu_data>
  105f6c:	f9002bfb 	str	x27, [sp, #80]
  105f70:	94000e49 	bl	109894 <plat_my_core_pos>
  105f74:	2a0003f7 	mov	w23, w0
  105f78:	91332339 	add	x25, x25, #0xcc8
  105f7c:	52800024 	mov	w4, #0x1                   	// #1
  105f80:	d37c7ee0 	ubfiz	x0, x23, #4, #32
  105f84:	8b0002a0 	add	x0, x21, x0
  105f88:	b9400805 	ldr	w5, [x0, #8]
  105f8c:	6b16009f 	cmp	w4, w22
  105f90:	11000494 	add	w20, w4, #0x1
  105f94:	54000369 	b.ls	106000 <psci_do_state_coordination+0xc8>  // b.plast
  105f98:	6b16029f 	cmp	w20, w22
  105f9c:	54000709 	b.ls	10607c <psci_do_state_coordination+0x144>  // b.plast
  105fa0:	39400261 	ldrb	w1, [x19]
  105fa4:	d53ed040 	mrs	x0, tpidr_el3
  105fa8:	39008001 	strb	w1, [x0, #32]
  105fac:	d53ed040 	mrs	x0, tpidr_el3
  105fb0:	91008000 	add	x0, x0, #0x20
  105fb4:	d2800021 	mov	x1, #0x1                   	// #1
  105fb8:	94000d1a 	bl	109420 <flush_dcache_range>
  105fbc:	94000e36 	bl	109894 <plat_my_core_pos>
  105fc0:	d37c7c00 	ubfiz	x0, x0, #4, #32
  105fc4:	8b0002b5 	add	x21, x21, x0
  105fc8:	90fff902 	adrp	x2, 25000 <mhu_secure_message_lock>
  105fcc:	91008042 	add	x2, x2, #0x20
  105fd0:	d2800001 	mov	x1, #0x0                   	// #0
  105fd4:	b9400aa0 	ldr	w0, [x21, #8]
  105fd8:	91000421 	add	x1, x1, #0x1
  105fdc:	6b0102df 	cmp	w22, w1
  105fe0:	540005e2 	b.cs	10609c <psci_do_state_coordination+0x164>  // b.hs, b.nlast
  105fe4:	a94153f3 	ldp	x19, x20, [sp, #16]
  105fe8:	a9425bf5 	ldp	x21, x22, [sp, #32]
  105fec:	a94363f7 	ldp	x23, x24, [sp, #48]
  105ff0:	a9446bf9 	ldp	x25, x26, [sp, #64]
  105ff4:	f9402bfb 	ldr	x27, [sp, #80]
  105ff8:	a8c67bfd 	ldp	x29, x30, [sp], #96
  105ffc:	d65f03c0 	ret
  106000:	2a0403fa 	mov	w26, w4
  106004:	2a0503fb 	mov	w27, w5
  106008:	d37c7ca5 	ubfiz	x5, x5, #4, #32
  10600c:	2a0403e0 	mov	w0, w4
  106010:	2a1703e1 	mov	w1, w23
  106014:	387a6a62 	ldrb	w2, [x19, x26]
  106018:	97ffff21 	bl	105c9c <psci_set_req_local_pwr_state>
  10601c:	51000480 	sub	w0, w4, #0x1
  106020:	b8656b02 	ldr	w2, [x24, x5]
  106024:	7100041f 	cmp	w0, #0x1
  106028:	54000268 	b.hi	106074 <psci_do_state_coordination+0x13c>  // b.pmore
  10602c:	2a0203e1 	mov	w1, w2
  106030:	b9400323 	ldr	w3, [x25]
  106034:	8b204820 	add	x0, x1, w0, uxtw #2
  106038:	90fff8e1 	adrp	x1, 22000 <percpu_data>
  10603c:	91355021 	add	x1, x1, #0xd54
  106040:	6b03005f 	cmp	w2, w3
  106044:	8b000021 	add	x1, x1, x0
  106048:	9a9f3021 	csel	x1, x1, xzr, cc  // cc = lo, ul, last
  10604c:	8b1b131b 	add	x27, x24, x27, lsl #4
  106050:	2a0403e0 	mov	w0, w4
  106054:	b9400762 	ldr	w2, [x27, #4]
  106058:	94000798 	bl	107eb8 <plat_get_target_pwr_state>
  10605c:	383a6a60 	strb	w0, [x19, x26]
  106060:	72001c1f 	tst	w0, #0xff
  106064:	54fff9a0 	b.eq	105f98 <psci_do_state_coordination+0x60>  // b.none
  106068:	b9400b65 	ldr	w5, [x27, #8]
  10606c:	2a1403e4 	mov	w4, w20
  106070:	17ffffc7 	b	105f8c <psci_do_state_coordination+0x54>
  106074:	d2800001 	mov	x1, #0x0                   	// #0
  106078:	17fffff5 	b	10604c <psci_do_state_coordination+0x114>
  10607c:	2a1403e5 	mov	w5, w20
  106080:	2a1403e0 	mov	w0, w20
  106084:	2a1703e1 	mov	w1, w23
  106088:	11000694 	add	w20, w20, #0x1
  10608c:	38656a62 	ldrb	w2, [x19, x5]
  106090:	97ffff03 	bl	105c9c <psci_set_req_local_pwr_state>
  106094:	38256a7f 	strb	wzr, [x19, x5]
  106098:	17ffffc0 	b	105f98 <psci_do_state_coordination+0x60>
  10609c:	d37c7c00 	ubfiz	x0, x0, #4, #32
  1060a0:	38616a63 	ldrb	w3, [x19, x1]
  1060a4:	8b000040 	add	x0, x2, x0
  1060a8:	39003003 	strb	w3, [x0, #12]
  1060ac:	b9400800 	ldr	w0, [x0, #8]
  1060b0:	17ffffca 	b	105fd8 <psci_do_state_coordination+0xa0>

00000000001060b4 <psci_find_max_off_lvl>:
  1060b4:	aa0003e1 	mov	x1, x0
  1060b8:	39400800 	ldrb	w0, [x0, #2]
  1060bc:	7100081f 	cmp	w0, #0x2
  1060c0:	54000120 	b.eq	1060e4 <psci_find_max_off_lvl+0x30>  // b.none
  1060c4:	39400420 	ldrb	w0, [x1, #1]
  1060c8:	7100081f 	cmp	w0, #0x2
  1060cc:	540000e0 	b.eq	1060e8 <psci_find_max_off_lvl+0x34>  // b.none
  1060d0:	39400021 	ldrb	w1, [x1]
  1060d4:	52800060 	mov	w0, #0x3                   	// #3
  1060d8:	7100083f 	cmp	w1, #0x2
  1060dc:	54000041 	b.ne	1060e4 <psci_find_max_off_lvl+0x30>  // b.any
  1060e0:	52800000 	mov	w0, #0x0                   	// #0
  1060e4:	d65f03c0 	ret
  1060e8:	52800020 	mov	w0, #0x1                   	// #1
  1060ec:	17fffffe 	b	1060e4 <psci_find_max_off_lvl+0x30>

00000000001060f0 <psci_find_target_suspend_lvl>:
  1060f0:	39400801 	ldrb	w1, [x0, #2]
  1060f4:	35000101 	cbnz	w1, 106114 <psci_find_target_suspend_lvl+0x24>
  1060f8:	39400401 	ldrb	w1, [x0, #1]
  1060fc:	35000101 	cbnz	w1, 10611c <psci_find_target_suspend_lvl+0x2c>
  106100:	39400001 	ldrb	w1, [x0]
  106104:	52800060 	mov	w0, #0x3                   	// #3
  106108:	34000041 	cbz	w1, 106110 <psci_find_target_suspend_lvl+0x20>
  10610c:	52800000 	mov	w0, #0x0                   	// #0
  106110:	d65f03c0 	ret
  106114:	52800040 	mov	w0, #0x2                   	// #2
  106118:	17fffffe 	b	106110 <psci_find_target_suspend_lvl+0x20>
  10611c:	52800020 	mov	w0, #0x1                   	// #1
  106120:	17fffffc 	b	106110 <psci_find_target_suspend_lvl+0x20>

0000000000106124 <psci_acquire_pwr_domain_locks>:
  106124:	a9bc7bfd 	stp	x29, x30, [sp, #-64]!
  106128:	910003fd 	mov	x29, sp
  10612c:	a90153f3 	stp	x19, x20, [sp, #16]
  106130:	2a0003f4 	mov	w20, w0
  106134:	52800033 	mov	w19, #0x1                   	// #1
  106138:	a9025bf5 	stp	x21, x22, [sp, #32]
  10613c:	f0fff8f6 	adrp	x22, 25000 <mhu_secure_message_lock>
  106140:	aa0103f5 	mov	x21, x1
  106144:	910022d6 	add	x22, x22, #0x8
  106148:	f9001bf7 	str	x23, [sp, #48]
  10614c:	f0fff8f7 	adrp	x23, 25000 <mhu_secure_message_lock>
  106150:	910082f7 	add	x23, x23, #0x20
  106154:	6b14027f 	cmp	w19, w20
  106158:	540000c9 	b.ls	106170 <psci_acquire_pwr_domain_locks+0x4c>  // b.plast
  10615c:	a94153f3 	ldp	x19, x20, [sp, #16]
  106160:	a9425bf5 	ldp	x21, x22, [sp, #32]
  106164:	f9401bf7 	ldr	x23, [sp, #48]
  106168:	a8c47bfd 	ldp	x29, x30, [sp], #64
  10616c:	d65f03c0 	ret
  106170:	51000660 	sub	w0, w19, #0x1
  106174:	11000673 	add	w19, w19, #0x1
  106178:	b8607aa0 	ldr	w0, [x21, x0, lsl #2]
  10617c:	8b0012e0 	add	x0, x23, x0, lsl #4
  106180:	39403800 	ldrb	w0, [x0, #14]
  106184:	8b000ec0 	add	x0, x22, x0, lsl #3
  106188:	97fffe89 	bl	105bac <bakery_lock_get>
  10618c:	17fffff2 	b	106154 <psci_acquire_pwr_domain_locks+0x30>

0000000000106190 <psci_release_pwr_domain_locks>:
  106190:	a9bd7bfd 	stp	x29, x30, [sp, #-48]!
  106194:	910003fd 	mov	x29, sp
  106198:	a90153f3 	stp	x19, x20, [sp, #16]
  10619c:	2a0003f3 	mov	w19, w0
  1061a0:	aa0103f4 	mov	x20, x1
  1061a4:	a9025bf5 	stp	x21, x22, [sp, #32]
  1061a8:	f0fff8f5 	adrp	x21, 25000 <mhu_secure_message_lock>
  1061ac:	f0fff8f6 	adrp	x22, 25000 <mhu_secure_message_lock>
  1061b0:	910022b5 	add	x21, x21, #0x8
  1061b4:	910082d6 	add	x22, x22, #0x20
  1061b8:	350000b3 	cbnz	w19, 1061cc <psci_release_pwr_domain_locks+0x3c>
  1061bc:	a94153f3 	ldp	x19, x20, [sp, #16]
  1061c0:	a9425bf5 	ldp	x21, x22, [sp, #32]
  1061c4:	a8c37bfd 	ldp	x29, x30, [sp], #48
  1061c8:	d65f03c0 	ret
  1061cc:	51000673 	sub	w19, w19, #0x1
  1061d0:	b8735a80 	ldr	w0, [x20, w19, uxtw #2]
  1061d4:	8b0012c0 	add	x0, x22, x0, lsl #4
  1061d8:	39403800 	ldrb	w0, [x0, #14]
  1061dc:	8b000ea0 	add	x0, x21, x0, lsl #3
  1061e0:	97fffea2 	bl	105c68 <bakery_lock_release>
  1061e4:	17fffff5 	b	1061b8 <psci_release_pwr_domain_locks+0x28>

00000000001061e8 <psci_validate_mpidr>:
  1061e8:	a9bf7bfd 	stp	x29, x30, [sp, #-16]!
  1061ec:	910003fd 	mov	x29, sp
  1061f0:	940006b6 	bl	107cc8 <plat_core_pos_by_mpidr>
  1061f4:	7100001f 	cmp	w0, #0x0
  1061f8:	a8c17bfd 	ldp	x29, x30, [sp], #16
  1061fc:	12800020 	mov	w0, #0xfffffffe            	// #-2
  106200:	1a9fb000 	csel	w0, w0, wzr, lt  // lt = tstop
  106204:	d65f03c0 	ret

0000000000106208 <psci_validate_entry_point>:
  106208:	a9bb7bfd 	stp	x29, x30, [sp, #-80]!
  10620c:	910003fd 	mov	x29, sp
  106210:	a90153f3 	stp	x19, x20, [sp, #16]
  106214:	aa0003f4 	mov	x20, x0
  106218:	90fff8e0 	adrp	x0, 22000 <percpu_data>
  10621c:	aa0103f3 	mov	x19, x1
  106220:	a9025bf5 	stp	x21, x22, [sp, #32]
  106224:	f9452800 	ldr	x0, [x0, #2640]
  106228:	a90363f7 	stp	x23, x24, [sp, #48]
  10622c:	aa0203f8 	mov	x24, x2
  106230:	f9403001 	ldr	x1, [x0, #96]
  106234:	f90023f9 	str	x25, [sp, #64]
  106238:	b5000361 	cbnz	x1, 1062a4 <psci_validate_entry_point+0x9c>
  10623c:	d53e1117 	mrs	x23, scr_el3
  106240:	d5381000 	mrs	x0, sctlr_el1
  106244:	927802f9 	and	x25, x23, #0x100
  106248:	37400437 	tbnz	w23, #8, 1062cc <psci_validate_entry_point+0xc4>
  10624c:	f2670000 	ands	x0, x0, #0x2000000
  106250:	52802021 	mov	w1, #0x101                 	// #257
  106254:	72a00b01 	movk	w1, #0x58, lsl #16
  106258:	d2800075 	mov	x21, #0x3                   	// #3
  10625c:	9a9f16a0 	csinc	x0, x21, xzr, ne  // ne = any
  106260:	29000281 	stp	w1, w0, [x20]
  106264:	f9000693 	str	x19, [x20, #8]
  106268:	1a9f07f6 	cset	w22, ne  // ne = any
  10626c:	91006280 	add	x0, x20, #0x18
  106270:	d2800801 	mov	x1, #0x40                  	// #64
  106274:	94000cd4 	bl	1095c4 <zeromem>
  106278:	f9000e98 	str	x24, [x20, #24]
  10627c:	365002d7 	tbz	w23, #10, 1062d4 <psci_validate_entry_point+0xcc>
  106280:	37000193 	tbnz	w19, #0, 1062b0 <psci_validate_entry_point+0xa8>
  106284:	f100033f 	cmp	x25, #0x0
  106288:	52807821 	mov	w1, #0x3c1                 	// #961
  10628c:	1a9f07e0 	cset	w0, ne  // ne = any
  106290:	11000400 	add	w0, w0, #0x1
  106294:	2a000820 	orr	w0, w1, w0, lsl #2
  106298:	b9001280 	str	w0, [x20, #16]
  10629c:	52800000 	mov	w0, #0x0                   	// #0
  1062a0:	14000005 	b	1062b4 <psci_validate_entry_point+0xac>
  1062a4:	aa1303e0 	mov	x0, x19
  1062a8:	d63f0020 	blr	x1
  1062ac:	34fffc80 	cbz	w0, 10623c <psci_validate_entry_point+0x34>
  1062b0:	12800100 	mov	w0, #0xfffffff7            	// #-9
  1062b4:	a94153f3 	ldp	x19, x20, [sp, #16]
  1062b8:	a9425bf5 	ldp	x21, x22, [sp, #32]
  1062bc:	a94363f7 	ldp	x23, x24, [sp, #48]
  1062c0:	f94023f9 	ldr	x25, [sp, #64]
  1062c4:	a8c57bfd 	ldp	x29, x30, [sp], #80
  1062c8:	d65f03c0 	ret
  1062cc:	d53c1000 	mrs	x0, sctlr_el2
  1062d0:	17ffffdf 	b	10624c <psci_validate_entry_point+0x44>
  1062d4:	52800140 	mov	w0, #0xa                   	// #10
  1062d8:	f100033f 	cmp	x25, #0x0
  1062dc:	1a8002b5 	csel	w21, w21, w0, eq  // eq = none
  1062e0:	531b0273 	ubfiz	w19, w19, #5, #1
  1062e4:	52803a00 	mov	w0, #0x1d0                 	// #464
  1062e8:	2a150273 	orr	w19, w19, w21
  1062ec:	2a162416 	orr	w22, w0, w22, lsl #9
  1062f0:	2a160273 	orr	w19, w19, w22
  1062f4:	b9001293 	str	w19, [x20, #16]
  1062f8:	17ffffe9 	b	10629c <psci_validate_entry_point+0x94>

00000000001062fc <psci_warmboot_entrypoint>:
  1062fc:	a9bd7bfd 	stp	x29, x30, [sp, #-48]!
  106300:	910003fd 	mov	x29, sp
  106304:	a90153f3 	stp	x19, x20, [sp, #16]
  106308:	94000d63 	bl	109894 <plat_my_core_pos>
  10630c:	790043ff 	strh	wzr, [sp, #32]
  106310:	39008bff 	strb	wzr, [sp, #34]
  106314:	f90017ff 	str	xzr, [sp, #40]
  106318:	d53ed041 	mrs	x1, tpidr_el3
  10631c:	b9401821 	ldr	w1, [x1, #24]
  106320:	7100043f 	cmp	w1, #0x1
  106324:	540000c1 	b.ne	10633c <psci_warmboot_entrypoint+0x40>  // b.any
  106328:	d0000020 	adrp	x0, 10c000 <__TEXT_END__>
  10632c:	911ee000 	add	x0, x0, #0x7b8
  106330:	9400075c 	bl	1080a0 <tf_log>
  106334:	940007c2 	bl	10823c <console_flush>
  106338:	94000c2f 	bl	1093f4 <do_panic>
  10633c:	2a0003f4 	mov	w20, w0
  106340:	d53ed041 	mrs	x1, tpidr_el3
  106344:	b9401c33 	ldr	w19, [x1, #28]
  106348:	9100a3e2 	add	x2, sp, #0x28
  10634c:	52800041 	mov	w1, #0x2                   	// #2
  106350:	71000e7f 	cmp	w19, #0x3
  106354:	1a811273 	csel	w19, w19, w1, ne  // ne = any
  106358:	2a1303e1 	mov	w1, w19
  10635c:	97fffec2 	bl	105e64 <psci_get_parent_pwr_domain_nodes>
  106360:	9100a3e1 	add	x1, sp, #0x28
  106364:	2a1303e0 	mov	w0, w19
  106368:	97ffff6f 	bl	106124 <psci_acquire_pwr_domain_locks>
  10636c:	910083e1 	add	x1, sp, #0x20
  106370:	2a1303e0 	mov	w0, w19
  106374:	97fffe98 	bl	105dd4 <psci_get_target_local_pwr_states>
  106378:	d53ed040 	mrs	x0, tpidr_el3
  10637c:	b9401800 	ldr	w0, [x0, #24]
  106380:	910083e1 	add	x1, sp, #0x20
  106384:	7100081f 	cmp	w0, #0x2
  106388:	2a1403e0 	mov	w0, w20
  10638c:	54000141 	b.ne	1063b4 <psci_warmboot_entrypoint+0xb8>  // b.any
  106390:	94000212 	bl	106bd8 <psci_cpu_on_finish>
  106394:	2a1303e0 	mov	w0, w19
  106398:	97fffec5 	bl	105eac <psci_set_pwr_domains_to_run>
  10639c:	9100a3e1 	add	x1, sp, #0x28
  1063a0:	2a1303e0 	mov	w0, w19
  1063a4:	97ffff7b 	bl	106190 <psci_release_pwr_domain_locks>
  1063a8:	a94153f3 	ldp	x19, x20, [sp, #16]
  1063ac:	a8c37bfd 	ldp	x29, x30, [sp], #48
  1063b0:	d65f03c0 	ret
  1063b4:	9400037c 	bl	1071a4 <psci_cpu_suspend_finish>
  1063b8:	17fffff7 	b	106394 <psci_warmboot_entrypoint+0x98>

00000000001063bc <psci_spd_migrate_info>:
  1063bc:	90fff8e1 	adrp	x1, 22000 <percpu_data>
  1063c0:	f9452c21 	ldr	x1, [x1, #2648]
  1063c4:	b40000a1 	cbz	x1, 1063d8 <psci_spd_migrate_info+0x1c>
  1063c8:	f9401821 	ldr	x1, [x1, #48]
  1063cc:	b4000061 	cbz	x1, 1063d8 <psci_spd_migrate_info+0x1c>
  1063d0:	aa0103f0 	mov	x16, x1
  1063d4:	d61f0200 	br	x16
  1063d8:	12800000 	mov	w0, #0xffffffff            	// #-1
  1063dc:	d65f03c0 	ret

00000000001063e0 <psci_print_power_domain_map>:
  1063e0:	d65f03c0 	ret

00000000001063e4 <psci_do_pwrdown_sequence>:
  1063e4:	14000bd5 	b	109338 <psci_do_pwrdown_cache_maintenance>

00000000001063e8 <psci_cpu_on>:
  1063e8:	a9b77bfd 	stp	x29, x30, [sp, #-144]!
  1063ec:	910003fd 	mov	x29, sp
  1063f0:	a90153f3 	stp	x19, x20, [sp, #16]
  1063f4:	aa0003f3 	mov	x19, x0
  1063f8:	aa0103f4 	mov	x20, x1
  1063fc:	f90013f5 	str	x21, [sp, #32]
  106400:	aa0203f5 	mov	x21, x2
  106404:	97ffff79 	bl	1061e8 <psci_validate_mpidr>
  106408:	350001a0 	cbnz	w0, 10643c <psci_cpu_on+0x54>
  10640c:	aa1503e2 	mov	x2, x21
  106410:	aa1403e1 	mov	x1, x20
  106414:	9100e3e0 	add	x0, sp, #0x38
  106418:	97ffff7c 	bl	106208 <psci_validate_entry_point>
  10641c:	35000080 	cbnz	w0, 10642c <psci_cpu_on+0x44>
  106420:	9100e3e1 	add	x1, sp, #0x38
  106424:	aa1303e0 	mov	x0, x19
  106428:	94000194 	bl	106a78 <psci_cpu_on_start>
  10642c:	a94153f3 	ldp	x19, x20, [sp, #16]
  106430:	f94013f5 	ldr	x21, [sp, #32]
  106434:	a8c97bfd 	ldp	x29, x30, [sp], #144
  106438:	d65f03c0 	ret
  10643c:	12800020 	mov	w0, #0xfffffffe            	// #-2
  106440:	17fffffb 	b	10642c <psci_cpu_on+0x44>

0000000000106444 <psci_cpu_suspend>:
  106444:	a9b67bfd 	stp	x29, x30, [sp, #-160]!
  106448:	910003fd 	mov	x29, sp
  10644c:	a90153f3 	stp	x19, x20, [sp, #16]
  106450:	2a0003f3 	mov	w19, w0
  106454:	a9025bf5 	stp	x21, x22, [sp, #32]
  106458:	aa0103f6 	mov	x22, x1
  10645c:	910103e1 	add	x1, sp, #0x40
  106460:	f9001bf7 	str	x23, [sp, #48]
  106464:	aa0203f7 	mov	x23, x2
  106468:	790083ff 	strh	wzr, [sp, #64]
  10646c:	39010bff 	strb	wzr, [sp, #66]
  106470:	97fffe18 	bl	105cd0 <psci_validate_power_state>
  106474:	2a0003f4 	mov	w20, w0
  106478:	35000300 	cbnz	w0, 1064d8 <psci_cpu_suspend+0x94>
  10647c:	910103e0 	add	x0, sp, #0x40
  106480:	d3504273 	ubfx	x19, x19, #16, #1
  106484:	97ffff1b 	bl	1060f0 <psci_find_target_suspend_lvl>
  106488:	2a0003f5 	mov	w21, w0
  10648c:	71000c1f 	cmp	w0, #0x3
  106490:	540000c1 	b.ne	1064a8 <psci_cpu_suspend+0x64>  // b.any
  106494:	d0000020 	adrp	x0, 10c000 <__TEXT_END__>
  106498:	911f6800 	add	x0, x0, #0x7da
  10649c:	94000701 	bl	1080a0 <tf_log>
  1064a0:	94000767 	bl	10823c <console_flush>
  1064a4:	94000bd4 	bl	1093f4 <do_panic>
  1064a8:	2a000260 	orr	w0, w19, w0
  1064ac:	35000220 	cbnz	w0, 1064f0 <psci_cpu_suspend+0xac>
  1064b0:	90fff8e0 	adrp	x0, 22000 <percpu_data>
  1064b4:	f9452800 	ldr	x0, [x0, #2640]
  1064b8:	f9400001 	ldr	x1, [x0]
  1064bc:	b4000361 	cbz	x1, 106528 <psci_cpu_suspend+0xe4>
  1064c0:	394103e0 	ldrb	w0, [sp, #64]
  1064c4:	d53ed042 	mrs	x2, tpidr_el3
  1064c8:	39008040 	strb	w0, [x2, #32]
  1064cc:	d63f0020 	blr	x1
  1064d0:	d53ed040 	mrs	x0, tpidr_el3
  1064d4:	3900801f 	strb	wzr, [x0, #32]
  1064d8:	2a1403e0 	mov	w0, w20
  1064dc:	a94153f3 	ldp	x19, x20, [sp, #16]
  1064e0:	a9425bf5 	ldp	x21, x22, [sp, #32]
  1064e4:	f9401bf7 	ldr	x23, [sp, #48]
  1064e8:	a8ca7bfd 	ldp	x29, x30, [sp], #160
  1064ec:	d65f03c0 	ret
  1064f0:	350000f3 	cbnz	w19, 10650c <psci_cpu_suspend+0xc8>
  1064f4:	2a1303e3 	mov	w3, w19
  1064f8:	910103e2 	add	x2, sp, #0x40
  1064fc:	2a1503e1 	mov	w1, w21
  106500:	910123e0 	add	x0, sp, #0x48
  106504:	940002bc 	bl	106ff4 <psci_cpu_suspend_start>
  106508:	17fffff4 	b	1064d8 <psci_cpu_suspend+0x94>
  10650c:	aa1703e2 	mov	x2, x23
  106510:	aa1603e1 	mov	x1, x22
  106514:	910123e0 	add	x0, sp, #0x48
  106518:	97ffff3c 	bl	106208 <psci_validate_entry_point>
  10651c:	34fffec0 	cbz	w0, 1064f4 <psci_cpu_suspend+0xb0>
  106520:	2a0003f4 	mov	w20, w0
  106524:	17ffffed 	b	1064d8 <psci_cpu_suspend+0x94>
  106528:	12800034 	mov	w20, #0xfffffffe            	// #-2
  10652c:	17ffffeb 	b	1064d8 <psci_cpu_suspend+0x94>

0000000000106530 <psci_system_suspend>:
  106530:	a9b87bfd 	stp	x29, x30, [sp, #-128]!
  106534:	910003fd 	mov	x29, sp
  106538:	a90153f3 	stp	x19, x20, [sp, #16]
  10653c:	aa0003f3 	mov	x19, x0
  106540:	aa0103f4 	mov	x20, x1
  106544:	97fffdf2 	bl	105d0c <psci_is_last_on_cpu>
  106548:	350000c0 	cbnz	w0, 106560 <psci_system_suspend+0x30>
  10654c:	12800053 	mov	w19, #0xfffffffd            	// #-3
  106550:	2a1303e0 	mov	w0, w19
  106554:	a94153f3 	ldp	x19, x20, [sp, #16]
  106558:	a8c87bfd 	ldp	x29, x30, [sp], #128
  10655c:	d65f03c0 	ret
  106560:	aa1303e1 	mov	x1, x19
  106564:	aa1403e2 	mov	x2, x20
  106568:	9100a3e0 	add	x0, sp, #0x28
  10656c:	97ffff27 	bl	106208 <psci_validate_entry_point>
  106570:	2a0003f3 	mov	w19, w0
  106574:	35fffee0 	cbnz	w0, 106550 <psci_system_suspend+0x20>
  106578:	910083e0 	add	x0, sp, #0x20
  10657c:	97fffddf 	bl	105cf8 <psci_query_sys_suspend_pwrstate>
  106580:	910083e0 	add	x0, sp, #0x20
  106584:	97fffedb 	bl	1060f0 <psci_find_target_suspend_lvl>
  106588:	7100041f 	cmp	w0, #0x1
  10658c:	54fffe09 	b.ls	10654c <psci_system_suspend+0x1c>  // b.plast
  106590:	910083e2 	add	x2, sp, #0x20
  106594:	9100a3e0 	add	x0, sp, #0x28
  106598:	52800023 	mov	w3, #0x1                   	// #1
  10659c:	52800041 	mov	w1, #0x2                   	// #2
  1065a0:	94000295 	bl	106ff4 <psci_cpu_suspend_start>
  1065a4:	17ffffeb 	b	106550 <psci_system_suspend+0x20>

00000000001065a8 <psci_cpu_off>:
  1065a8:	52800040 	mov	w0, #0x2                   	// #2
  1065ac:	140000f2 	b	106974 <psci_do_cpu_off>

00000000001065b0 <psci_affinity_info>:
  1065b0:	340000e1 	cbz	w1, 1065cc <psci_affinity_info+0x1c>
  1065b4:	12800020 	mov	w0, #0xfffffffe            	// #-2
  1065b8:	d65f03c0 	ret
  1065bc:	12800020 	mov	w0, #0xfffffffe            	// #-2
  1065c0:	f9400bf3 	ldr	x19, [sp, #16]
  1065c4:	a8c27bfd 	ldp	x29, x30, [sp], #32
  1065c8:	d65f03c0 	ret
  1065cc:	a9be7bfd 	stp	x29, x30, [sp, #-32]!
  1065d0:	910003fd 	mov	x29, sp
  1065d4:	f9000bf3 	str	x19, [sp, #16]
  1065d8:	940005bc 	bl	107cc8 <plat_core_pos_by_mpidr>
  1065dc:	2a0003f3 	mov	w19, w0
  1065e0:	3100041f 	cmn	w0, #0x1
  1065e4:	54fffec0 	b.eq	1065bc <psci_affinity_info+0xc>  // b.none
  1065e8:	94000b44 	bl	1092f8 <_cpu_data_by_index>
  1065ec:	91006000 	add	x0, x0, #0x18
  1065f0:	d2800081 	mov	x1, #0x4                   	// #4
  1065f4:	94000b8b 	bl	109420 <flush_dcache_range>
  1065f8:	2a1303e0 	mov	w0, w19
  1065fc:	94000b3f 	bl	1092f8 <_cpu_data_by_index>
  106600:	b9401800 	ldr	w0, [x0, #24]
  106604:	17ffffef 	b	1065c0 <psci_affinity_info+0x10>

0000000000106608 <psci_migrate>:
  106608:	a9bd7bfd 	stp	x29, x30, [sp, #-48]!
  10660c:	910003fd 	mov	x29, sp
  106610:	f9000bf3 	str	x19, [sp, #16]
  106614:	aa0003f3 	mov	x19, x0
  106618:	9100a3e0 	add	x0, sp, #0x28
  10661c:	97ffff68 	bl	1063bc <psci_spd_migrate_info>
  106620:	340000e0 	cbz	w0, 10663c <psci_migrate+0x34>
  106624:	7100041f 	cmp	w0, #0x1
  106628:	12800040 	mov	w0, #0xfffffffd            	// #-3
  10662c:	5a9f0000 	csinv	w0, w0, wzr, eq  // eq = none
  106630:	f9400bf3 	ldr	x19, [sp, #16]
  106634:	a8c37bfd 	ldp	x29, x30, [sp], #48
  106638:	d65f03c0 	ret
  10663c:	d53800a0 	mrs	x0, mpidr_el1
  106640:	f94017e1 	ldr	x1, [sp, #40]
  106644:	eb00003f 	cmp	x1, x0
  106648:	54000161 	b.ne	106674 <psci_migrate+0x6c>  // b.any
  10664c:	aa1303e0 	mov	x0, x19
  106650:	97fffee6 	bl	1061e8 <psci_validate_mpidr>
  106654:	35000140 	cbnz	w0, 10667c <psci_migrate+0x74>
  106658:	d53800a0 	mrs	x0, mpidr_el1
  10665c:	90fff8e1 	adrp	x1, 22000 <percpu_data>
  106660:	f9452c21 	ldr	x1, [x1, #2648]
  106664:	f9401422 	ldr	x2, [x1, #40]
  106668:	aa1303e1 	mov	x1, x19
  10666c:	d63f0040 	blr	x2
  106670:	17fffff0 	b	106630 <psci_migrate+0x28>
  106674:	128000c0 	mov	w0, #0xfffffff9            	// #-7
  106678:	17ffffee 	b	106630 <psci_migrate+0x28>
  10667c:	12800020 	mov	w0, #0xfffffffe            	// #-2
  106680:	17ffffec 	b	106630 <psci_migrate+0x28>

0000000000106684 <psci_migrate_info_type>:
  106684:	a9be7bfd 	stp	x29, x30, [sp, #-32]!
  106688:	910003fd 	mov	x29, sp
  10668c:	910063e0 	add	x0, sp, #0x18
  106690:	97ffff4b 	bl	1063bc <psci_spd_migrate_info>
  106694:	a8c27bfd 	ldp	x29, x30, [sp], #32
  106698:	d65f03c0 	ret

000000000010669c <psci_migrate_info_up_cpu>:
  10669c:	a9be7bfd 	stp	x29, x30, [sp, #-32]!
  1066a0:	910003fd 	mov	x29, sp
  1066a4:	910063e0 	add	x0, sp, #0x18
  1066a8:	97ffff45 	bl	1063bc <psci_spd_migrate_info>
  1066ac:	f9400fe1 	ldr	x1, [sp, #24]
  1066b0:	7100041f 	cmp	w0, #0x1
  1066b4:	a8c27bfd 	ldp	x29, x30, [sp], #32
  1066b8:	92800020 	mov	x0, #0xfffffffffffffffe    	// #-2
  1066bc:	9a809020 	csel	x0, x1, x0, ls  // ls = plast
  1066c0:	d65f03c0 	ret

00000000001066c4 <psci_node_hw_state>:
  1066c4:	a9be7bfd 	stp	x29, x30, [sp, #-32]!
  1066c8:	910003fd 	mov	x29, sp
  1066cc:	a90153f3 	stp	x19, x20, [sp, #16]
  1066d0:	aa0003f4 	mov	x20, x0
  1066d4:	2a0103f3 	mov	w19, w1
  1066d8:	97fffec4 	bl	1061e8 <psci_validate_mpidr>
  1066dc:	35000180 	cbnz	w0, 10670c <psci_node_hw_state+0x48>
  1066e0:	71000a7f 	cmp	w19, #0x2
  1066e4:	54000148 	b.hi	10670c <psci_node_hw_state+0x48>  // b.pmore
  1066e8:	90fff8e0 	adrp	x0, 22000 <percpu_data>
  1066ec:	2a1303e1 	mov	w1, w19
  1066f0:	f9452800 	ldr	x0, [x0, #2640]
  1066f4:	f9404002 	ldr	x2, [x0, #128]
  1066f8:	aa1403e0 	mov	x0, x20
  1066fc:	a94153f3 	ldp	x19, x20, [sp, #16]
  106700:	aa0203f0 	mov	x16, x2
  106704:	a8c27bfd 	ldp	x29, x30, [sp], #32
  106708:	d61f0200 	br	x16
  10670c:	12800020 	mov	w0, #0xfffffffe            	// #-2
  106710:	a94153f3 	ldp	x19, x20, [sp, #16]
  106714:	a8c27bfd 	ldp	x29, x30, [sp], #32
  106718:	d65f03c0 	ret

000000000010671c <psci_features>:
  10671c:	52b00001 	mov	w1, #0x80000000            	// #-2147483648
  106720:	6b01001f 	cmp	w0, w1
  106724:	54000280 	b.eq	106774 <psci_features+0x58>  // b.none
  106728:	90fff8e1 	adrp	x1, 22000 <percpu_data>
  10672c:	b94ccc21 	ldr	w1, [x1, #3276]
  106730:	36f00080 	tbz	w0, #30, 106740 <psci_features+0x24>
  106734:	528c1742 	mov	w2, #0x60ba                	// #24762
  106738:	72a002e2 	movk	w2, #0x17, lsl #16
  10673c:	0a020021 	and	w1, w1, w2
  106740:	d3587402 	ubfx	x2, x0, #24, #6
  106744:	7100105f 	cmp	w2, #0x4
  106748:	540001a1 	b.ne	10677c <psci_features+0x60>  // b.any
  10674c:	d3505c04 	ubfx	x4, x0, #16, #8
  106750:	531f7c02 	lsr	w2, w0, #31
  106754:	36f80140 	tbz	w0, #31, 10677c <psci_features+0x60>
  106758:	121b2803 	and	w3, w0, #0xffe0
  10675c:	2a040063 	orr	w3, w3, w4
  106760:	350000e3 	cbnz	w3, 10677c <psci_features+0x60>
  106764:	1ac02040 	lsl	w0, w2, w0
  106768:	6a01001f 	tst	w0, w1
  10676c:	5a9f13e0 	csetm	w0, eq  // eq = none
  106770:	d65f03c0 	ret
  106774:	52800000 	mov	w0, #0x0                   	// #0
  106778:	17fffffe 	b	106770 <psci_features+0x54>
  10677c:	12800000 	mov	w0, #0xffffffff            	// #-1
  106780:	17fffffc 	b	106770 <psci_features+0x54>

0000000000106784 <psci_smc_handler>:
  106784:	360009e7 	tbz	w7, #0, 1068c0 <psci_smc_handler+0x13c>
  106788:	90fff8e5 	adrp	x5, 22000 <percpu_data>
  10678c:	2a0003e4 	mov	w4, w0
  106790:	aa0103e0 	mov	x0, x1
  106794:	aa0203e1 	mov	x1, x2
  106798:	b94ccca5 	ldr	w5, [x5, #3276]
  10679c:	aa0303e2 	mov	x2, x3
  1067a0:	52800023 	mov	w3, #0x1                   	// #1
  1067a4:	1ac42063 	lsl	w3, w3, w4
  1067a8:	6a05007f 	tst	w3, w5
  1067ac:	540008a0 	b.eq	1068c0 <psci_smc_handler+0x13c>  // b.none
  1067b0:	a9bf7bfd 	stp	x29, x30, [sp, #-16]!
  1067b4:	910003fd 	mov	x29, sp
  1067b8:	37f00704 	tbnz	w4, #30, 106898 <psci_smc_handler+0x114>
  1067bc:	52af8003 	mov	w3, #0x7c000000            	// #2080374784
  1067c0:	0b030084 	add	w4, w4, w3
  1067c4:	7100509f 	cmp	w4, #0x14
  1067c8:	54000808 	b.hi	1068c8 <psci_smc_handler+0x144>  // b.pmore
  1067cc:	d0000023 	adrp	x3, 10c000 <__TEXT_END__>
  1067d0:	910b8063 	add	x3, x3, #0x2e0
  1067d4:	38644863 	ldrb	w3, [x3, w4, uxtw]
  1067d8:	10000064 	adr	x4, 1067e4 <psci_smc_handler+0x60>
  1067dc:	8b238883 	add	x3, x4, w3, sxtb #2
  1067e0:	d61f0060 	br	x3
  1067e4:	320083e0 	mov	w0, #0x10001               	// #65537
  1067e8:	a8c17bfd 	ldp	x29, x30, [sp], #16
  1067ec:	d65f03c0 	ret
  1067f0:	97ffff6e 	bl	1065a8 <psci_cpu_off>
  1067f4:	93407c00 	sxtw	x0, w0
  1067f8:	17fffffc 	b	1067e8 <psci_smc_handler+0x64>
  1067fc:	2a0203e2 	mov	w2, w2
  106800:	2a0103e1 	mov	w1, w1
  106804:	97ffff10 	bl	106444 <psci_cpu_suspend>
  106808:	17fffffb 	b	1067f4 <psci_smc_handler+0x70>
  10680c:	2a0203e2 	mov	w2, w2
  106810:	2a0103e1 	mov	w1, w1
  106814:	2a0003e0 	mov	w0, w0
  106818:	97fffef4 	bl	1063e8 <psci_cpu_on>
  10681c:	17fffff6 	b	1067f4 <psci_smc_handler+0x70>
  106820:	2a0003e0 	mov	w0, w0
  106824:	97ffff63 	bl	1065b0 <psci_affinity_info>
  106828:	17fffff3 	b	1067f4 <psci_smc_handler+0x70>
  10682c:	2a0003e0 	mov	w0, w0
  106830:	97ffff76 	bl	106608 <psci_migrate>
  106834:	17fffff0 	b	1067f4 <psci_smc_handler+0x70>
  106838:	97ffff93 	bl	106684 <psci_migrate_info_type>
  10683c:	17ffffee 	b	1067f4 <psci_smc_handler+0x70>
  106840:	a8c17bfd 	ldp	x29, x30, [sp], #16
  106844:	17ffff96 	b	10669c <psci_migrate_info_up_cpu>
  106848:	2a0003e0 	mov	w0, w0
  10684c:	97ffff9e 	bl	1066c4 <psci_node_hw_state>
  106850:	17ffffe9 	b	1067f4 <psci_smc_handler+0x70>
  106854:	2a0103e1 	mov	w1, w1
  106858:	2a0003e0 	mov	w0, w0
  10685c:	97ffff35 	bl	106530 <psci_system_suspend>
  106860:	17ffffe5 	b	1067f4 <psci_smc_handler+0x70>
  106864:	94000278 	bl	107244 <psci_system_off>
  106868:	94000285 	bl	10727c <psci_system_reset>
  10686c:	97ffffac 	bl	10671c <psci_features>
  106870:	17ffffe1 	b	1067f4 <psci_smc_handler+0x70>
  106874:	a8c17bfd 	ldp	x29, x30, [sp], #16
  106878:	14000016 	b	1068d0 <psci_mem_protect>
  10687c:	2a0103e1 	mov	w1, w1
  106880:	2a0003e0 	mov	w0, w0
  106884:	a8c17bfd 	ldp	x29, x30, [sp], #16
  106888:	14000029 	b	10692c <psci_mem_chk_range>
  10688c:	2a0103e1 	mov	w1, w1
  106890:	a8c17bfd 	ldp	x29, x30, [sp], #16
  106894:	14000288 	b	1072b4 <psci_system_reset2>
  106898:	12b88003 	mov	w3, #0x3bffffff            	// #1006632959
  10689c:	0b030084 	add	w4, w4, w3
  1068a0:	71004c9f 	cmp	w4, #0x13
  1068a4:	54000128 	b.hi	1068c8 <psci_smc_handler+0x144>  // b.pmore
  1068a8:	d0000023 	adrp	x3, 10c000 <__TEXT_END__>
  1068ac:	910be063 	add	x3, x3, #0x2f8
  1068b0:	38644863 	ldrb	w3, [x3, w4, uxtw]
  1068b4:	10000064 	adr	x4, 1068c0 <psci_smc_handler+0x13c>
  1068b8:	8b238883 	add	x3, x4, w3, sxtb #2
  1068bc:	d61f0060 	br	x3
  1068c0:	92800000 	mov	x0, #0xffffffffffffffff    	// #-1
  1068c4:	d65f03c0 	ret
  1068c8:	92800000 	mov	x0, #0xffffffffffffffff    	// #-1
  1068cc:	17ffffc7 	b	1067e8 <psci_smc_handler+0x64>

00000000001068d0 <psci_mem_protect>:
  1068d0:	a9bd7bfd 	stp	x29, x30, [sp, #-48]!
  1068d4:	910003fd 	mov	x29, sp
  1068d8:	a90153f3 	stp	x19, x20, [sp, #16]
  1068dc:	90fff8f4 	adrp	x20, 22000 <percpu_data>
  1068e0:	2a0003f3 	mov	w19, w0
  1068e4:	f9452a80 	ldr	x0, [x20, #2640]
  1068e8:	f9404801 	ldr	x1, [x0, #144]
  1068ec:	9100b3e0 	add	x0, sp, #0x2c
  1068f0:	d63f0020 	blr	x1
  1068f4:	36f800a0 	tbz	w0, #31, 106908 <psci_mem_protect+0x38>
  1068f8:	92800000 	mov	x0, #0xffffffffffffffff    	// #-1
  1068fc:	a94153f3 	ldp	x19, x20, [sp, #16]
  106900:	a8c37bfd 	ldp	x29, x30, [sp], #48
  106904:	d65f03c0 	ret
  106908:	f9452a80 	ldr	x0, [x20, #2640]
  10690c:	f9404c01 	ldr	x1, [x0, #152]
  106910:	2a1303e0 	mov	w0, w19
  106914:	d63f0020 	blr	x1
  106918:	37ffff00 	tbnz	w0, #31, 1068f8 <psci_mem_protect+0x28>
  10691c:	b9402fe0 	ldr	w0, [sp, #44]
  106920:	7100001f 	cmp	w0, #0x0
  106924:	9a9f07e0 	cset	x0, ne  // ne = any
  106928:	17fffff5 	b	1068fc <psci_mem_protect+0x2c>

000000000010692c <psci_mem_chk_range>:
  10692c:	b50000c1 	cbnz	x1, 106944 <psci_mem_chk_range+0x18>
  106930:	92800040 	mov	x0, #0xfffffffffffffffd    	// #-3
  106934:	d65f03c0 	ret
  106938:	92800040 	mov	x0, #0xfffffffffffffffd    	// #-3
  10693c:	a8c17bfd 	ldp	x29, x30, [sp], #16
  106940:	d65f03c0 	ret
  106944:	cb0103e2 	neg	x2, x1
  106948:	eb00005f 	cmp	x2, x0
  10694c:	54ffff23 	b.cc	106930 <psci_mem_chk_range+0x4>  // b.lo, b.ul, b.last
  106950:	a9bf7bfd 	stp	x29, x30, [sp, #-16]!
  106954:	90fff8e2 	adrp	x2, 22000 <percpu_data>
  106958:	910003fd 	mov	x29, sp
  10695c:	f9452842 	ldr	x2, [x2, #2640]
  106960:	f9404442 	ldr	x2, [x2, #136]
  106964:	d63f0040 	blr	x2
  106968:	37fffe80 	tbnz	w0, #31, 106938 <psci_mem_chk_range+0xc>
  10696c:	d2800000 	mov	x0, #0x0                   	// #0
  106970:	17fffff3 	b	10693c <psci_mem_chk_range+0x10>

0000000000106974 <psci_do_cpu_off>:
  106974:	a9bd7bfd 	stp	x29, x30, [sp, #-48]!
  106978:	910003fd 	mov	x29, sp
  10697c:	a90153f3 	stp	x19, x20, [sp, #16]
  106980:	2a0003f4 	mov	w20, w0
  106984:	94000bc4 	bl	109894 <plat_my_core_pos>
  106988:	9100a3e2 	add	x2, sp, #0x28
  10698c:	52804041 	mov	w1, #0x202                 	// #514
  106990:	790043e1 	strh	w1, [sp, #32]
  106994:	52800041 	mov	w1, #0x2                   	// #2
  106998:	39008be1 	strb	w1, [sp, #34]
  10699c:	2a1403e1 	mov	w1, w20
  1069a0:	f90017ff 	str	xzr, [sp, #40]
  1069a4:	97fffd30 	bl	105e64 <psci_get_parent_pwr_domain_nodes>
  1069a8:	2a1403e0 	mov	w0, w20
  1069ac:	9100a3e1 	add	x1, sp, #0x28
  1069b0:	97fffddd 	bl	106124 <psci_acquire_pwr_domain_locks>
  1069b4:	90fff8e0 	adrp	x0, 22000 <percpu_data>
  1069b8:	f9452c00 	ldr	x0, [x0, #2648]
  1069bc:	b5000460 	cbnz	x0, 106a48 <psci_do_cpu_off+0xd4>
  1069c0:	910083e1 	add	x1, sp, #0x20
  1069c4:	2a1403e0 	mov	w0, w20
  1069c8:	97fffd5c 	bl	105f38 <psci_do_state_coordination>
  1069cc:	52800013 	mov	w19, #0x0                   	// #0
  1069d0:	910083e0 	add	x0, sp, #0x20
  1069d4:	97fffdb8 	bl	1060b4 <psci_find_max_off_lvl>
  1069d8:	97fffe83 	bl	1063e4 <psci_do_pwrdown_sequence>
  1069dc:	90fff8e0 	adrp	x0, 22000 <percpu_data>
  1069e0:	f9452800 	ldr	x0, [x0, #2640]
  1069e4:	f9400801 	ldr	x1, [x0, #16]
  1069e8:	910083e0 	add	x0, sp, #0x20
  1069ec:	d63f0020 	blr	x1
  1069f0:	9100a3e1 	add	x1, sp, #0x28
  1069f4:	2a1403e0 	mov	w0, w20
  1069f8:	97fffde6 	bl	106190 <psci_release_pwr_domain_locks>
  1069fc:	35000373 	cbnz	w19, 106a68 <psci_do_cpu_off+0xf4>
  106a00:	d53ed040 	mrs	x0, tpidr_el3
  106a04:	d2800081 	mov	x1, #0x4                   	// #4
  106a08:	91006000 	add	x0, x0, #0x18
  106a0c:	94000a85 	bl	109420 <flush_dcache_range>
  106a10:	d53ed040 	mrs	x0, tpidr_el3
  106a14:	52800021 	mov	w1, #0x1                   	// #1
  106a18:	b9001801 	str	w1, [x0, #24]
  106a1c:	d5033b9f 	dsb	ish
  106a20:	d53ed040 	mrs	x0, tpidr_el3
  106a24:	d2800081 	mov	x1, #0x4                   	// #4
  106a28:	91006000 	add	x0, x0, #0x18
  106a2c:	94000a99 	bl	109490 <inv_dcache_range>
  106a30:	90fff8e0 	adrp	x0, 22000 <percpu_data>
  106a34:	f9452800 	ldr	x0, [x0, #2640]
  106a38:	f9402001 	ldr	x1, [x0, #64]
  106a3c:	b4000141 	cbz	x1, 106a64 <psci_do_cpu_off+0xf0>
  106a40:	910083e0 	add	x0, sp, #0x20
  106a44:	d63f0020 	blr	x1
  106a48:	f9400401 	ldr	x1, [x0, #8]
  106a4c:	b4fffba1 	cbz	x1, 1069c0 <psci_do_cpu_off+0x4c>
  106a50:	d2800000 	mov	x0, #0x0                   	// #0
  106a54:	d63f0020 	blr	x1
  106a58:	2a0003f3 	mov	w19, w0
  106a5c:	34fffb20 	cbz	w0, 1069c0 <psci_do_cpu_off+0x4c>
  106a60:	17ffffe4 	b	1069f0 <psci_do_cpu_off+0x7c>
  106a64:	94000a44 	bl	109374 <psci_power_down_wfi>
  106a68:	2a1303e0 	mov	w0, w19
  106a6c:	a94153f3 	ldp	x19, x20, [sp, #16]
  106a70:	a8c37bfd 	ldp	x29, x30, [sp], #48
  106a74:	d65f03c0 	ret

0000000000106a78 <psci_cpu_on_start>:
  106a78:	a9bc7bfd 	stp	x29, x30, [sp, #-64]!
  106a7c:	910003fd 	mov	x29, sp
  106a80:	a90153f3 	stp	x19, x20, [sp, #16]
  106a84:	aa0003f4 	mov	x20, x0
  106a88:	a9025bf5 	stp	x21, x22, [sp, #32]
  106a8c:	aa0103f6 	mov	x22, x1
  106a90:	d2800195 	mov	x21, #0xc                   	// #12
  106a94:	f9001bf7 	str	x23, [sp, #48]
  106a98:	9400048c 	bl	107cc8 <plat_core_pos_by_mpidr>
  106a9c:	90fff8e2 	adrp	x2, 22000 <percpu_data>
  106aa0:	91284042 	add	x2, x2, #0xa10
  106aa4:	8b2052b5 	add	x21, x21, w0, uxtw #4
  106aa8:	2a0003f3 	mov	w19, w0
  106aac:	8b0202b5 	add	x21, x21, x2
  106ab0:	aa1503e0 	mov	x0, x21
  106ab4:	94000a17 	bl	109310 <spin_lock>
  106ab8:	2a1303e0 	mov	w0, w19
  106abc:	94000a0f 	bl	1092f8 <_cpu_data_by_index>
  106ac0:	d2800081 	mov	x1, #0x4                   	// #4
  106ac4:	91006000 	add	x0, x0, #0x18
  106ac8:	94000a56 	bl	109420 <flush_dcache_range>
  106acc:	2a1303e0 	mov	w0, w19
  106ad0:	94000a0a 	bl	1092f8 <_cpu_data_by_index>
  106ad4:	b9401800 	ldr	w0, [x0, #24]
  106ad8:	34000780 	cbz	w0, 106bc8 <psci_cpu_on_start+0x150>
  106adc:	7100081f 	cmp	w0, #0x2
  106ae0:	54000780 	b.eq	106bd0 <psci_cpu_on_start+0x158>  // b.none
  106ae4:	90fff8e0 	adrp	x0, 22000 <percpu_data>
  106ae8:	f9452c00 	ldr	x0, [x0, #2648]
  106aec:	b40000a0 	cbz	x0, 106b00 <psci_cpu_on_start+0x88>
  106af0:	f9400001 	ldr	x1, [x0]
  106af4:	b4000061 	cbz	x1, 106b00 <psci_cpu_on_start+0x88>
  106af8:	aa1403e0 	mov	x0, x20
  106afc:	d63f0020 	blr	x1
  106b00:	2a1303e0 	mov	w0, w19
  106b04:	52800057 	mov	w23, #0x2                   	// #2
  106b08:	940009fc 	bl	1092f8 <_cpu_data_by_index>
  106b0c:	b9001817 	str	w23, [x0, #24]
  106b10:	2a1303e0 	mov	w0, w19
  106b14:	940009f9 	bl	1092f8 <_cpu_data_by_index>
  106b18:	91006000 	add	x0, x0, #0x18
  106b1c:	d2800081 	mov	x1, #0x4                   	// #4
  106b20:	94000a40 	bl	109420 <flush_dcache_range>
  106b24:	2a1303e0 	mov	w0, w19
  106b28:	940009f4 	bl	1092f8 <_cpu_data_by_index>
  106b2c:	b9401800 	ldr	w0, [x0, #24]
  106b30:	6b17001f 	cmp	w0, w23
  106b34:	54000120 	b.eq	106b58 <psci_cpu_on_start+0xe0>  // b.none
  106b38:	2a1303e0 	mov	w0, w19
  106b3c:	940009ef 	bl	1092f8 <_cpu_data_by_index>
  106b40:	b9001817 	str	w23, [x0, #24]
  106b44:	2a1303e0 	mov	w0, w19
  106b48:	940009ec 	bl	1092f8 <_cpu_data_by_index>
  106b4c:	91006000 	add	x0, x0, #0x18
  106b50:	d2800081 	mov	x1, #0x4                   	// #4
  106b54:	94000a33 	bl	109420 <flush_dcache_range>
  106b58:	90fff8e0 	adrp	x0, 22000 <percpu_data>
  106b5c:	f9452800 	ldr	x0, [x0, #2640]
  106b60:	f9400401 	ldr	x1, [x0, #8]
  106b64:	aa1403e0 	mov	x0, x20
  106b68:	d63f0020 	blr	x1
  106b6c:	2a0003f4 	mov	w20, w0
  106b70:	35000180 	cbnz	w0, 106ba0 <psci_cpu_on_start+0x128>
  106b74:	aa1603e1 	mov	x1, x22
  106b78:	2a1303e0 	mov	w0, w19
  106b7c:	97fffba0 	bl	1059fc <cm_init_context_by_index>
  106b80:	aa1503e0 	mov	x0, x21
  106b84:	940009eb 	bl	109330 <spin_unlock>
  106b88:	2a1403e0 	mov	w0, w20
  106b8c:	a94153f3 	ldp	x19, x20, [sp, #16]
  106b90:	a9425bf5 	ldp	x21, x22, [sp, #32]
  106b94:	f9401bf7 	ldr	x23, [sp, #48]
  106b98:	a8c47bfd 	ldp	x29, x30, [sp], #64
  106b9c:	d65f03c0 	ret
  106ba0:	2a1303e0 	mov	w0, w19
  106ba4:	940009d5 	bl	1092f8 <_cpu_data_by_index>
  106ba8:	52800021 	mov	w1, #0x1                   	// #1
  106bac:	b9001801 	str	w1, [x0, #24]
  106bb0:	2a1303e0 	mov	w0, w19
  106bb4:	940009d1 	bl	1092f8 <_cpu_data_by_index>
  106bb8:	91006000 	add	x0, x0, #0x18
  106bbc:	d2800081 	mov	x1, #0x4                   	// #4
  106bc0:	94000a18 	bl	109420 <flush_dcache_range>
  106bc4:	17ffffef 	b	106b80 <psci_cpu_on_start+0x108>
  106bc8:	12800074 	mov	w20, #0xfffffffc            	// #-4
  106bcc:	17ffffed 	b	106b80 <psci_cpu_on_start+0x108>
  106bd0:	12800094 	mov	w20, #0xfffffffb            	// #-5
  106bd4:	17ffffeb 	b	106b80 <psci_cpu_on_start+0x108>

0000000000106bd8 <psci_cpu_on_finish>:
  106bd8:	a9bd7bfd 	stp	x29, x30, [sp, #-48]!
  106bdc:	910003fd 	mov	x29, sp
  106be0:	a9025bf5 	stp	x21, x22, [sp, #32]
  106be4:	90fff8f5 	adrp	x21, 22000 <percpu_data>
  106be8:	a90153f3 	stp	x19, x20, [sp, #16]
  106bec:	2a0003f3 	mov	w19, w0
  106bf0:	aa0103f4 	mov	x20, x1
  106bf4:	f9452aa0 	ldr	x0, [x21, #2640]
  106bf8:	f9401401 	ldr	x1, [x0, #40]
  106bfc:	aa1403e0 	mov	x0, x20
  106c00:	d63f0020 	blr	x1
  106c04:	f9452aa0 	ldr	x0, [x21, #2640]
  106c08:	f9401801 	ldr	x1, [x0, #48]
  106c0c:	b4000061 	cbz	x1, 106c18 <psci_cpu_on_finish+0x40>
  106c10:	aa1403e0 	mov	x0, x20
  106c14:	d63f0020 	blr	x1
  106c18:	d2800194 	mov	x20, #0xc                   	// #12
  106c1c:	90fff8f5 	adrp	x21, 22000 <percpu_data>
  106c20:	8b335294 	add	x20, x20, w19, uxtw #4
  106c24:	912842b5 	add	x21, x21, #0xa10
  106c28:	8b150294 	add	x20, x20, x21
  106c2c:	94000020 	bl	106cac <psci_arch_setup>
  106c30:	aa1403e0 	mov	x0, x20
  106c34:	940009b7 	bl	109310 <spin_lock>
  106c38:	aa1403e0 	mov	x0, x20
  106c3c:	940009bd 	bl	109330 <spin_unlock>
  106c40:	90fff8e0 	adrp	x0, 22000 <percpu_data>
  106c44:	f9452c00 	ldr	x0, [x0, #2648]
  106c48:	b40000a0 	cbz	x0, 106c5c <psci_cpu_on_finish+0x84>
  106c4c:	f9400c01 	ldr	x1, [x0, #24]
  106c50:	b4000061 	cbz	x1, 106c5c <psci_cpu_on_finish+0x84>
  106c54:	d2800000 	mov	x0, #0x0                   	// #0
  106c58:	d63f0020 	blr	x1
  106c5c:	d0000034 	adrp	x20, 10c000 <__TEXT_END__>
  106c60:	d0000036 	adrp	x22, 10c000 <__TEXT_END__>
  106c64:	912d6294 	add	x20, x20, #0xb58
  106c68:	912d62d6 	add	x22, x22, #0xb58
  106c6c:	eb16029f 	cmp	x20, x22
  106c70:	54000163 	b.cc	106c9c <psci_cpu_on_finish+0xc4>  // b.lo, b.ul, b.last
  106c74:	d53800a0 	mrs	x0, mpidr_el1
  106c78:	d37c7e73 	ubfiz	x19, x19, #4, #32
  106c7c:	92409c00 	and	x0, x0, #0xffffffffff
  106c80:	9260dc00 	and	x0, x0, #0xffffffff00ffffff
  106c84:	f8336aa0 	str	x0, [x21, x19]
  106c88:	52800020 	mov	w0, #0x1                   	// #1
  106c8c:	a94153f3 	ldp	x19, x20, [sp, #16]
  106c90:	a9425bf5 	ldp	x21, x22, [sp, #32]
  106c94:	a8c37bfd 	ldp	x29, x30, [sp], #48
  106c98:	17fffb96 	b	105af0 <cm_prepare_el3_exit>
  106c9c:	f8408681 	ldr	x1, [x20], #8
  106ca0:	d2800000 	mov	x0, #0x0                   	// #0
  106ca4:	d63f0020 	blr	x1
  106ca8:	17fffff1 	b	106c6c <psci_cpu_on_finish+0x94>

0000000000106cac <psci_arch_setup>:
  106cac:	a9bf7bfd 	stp	x29, x30, [sp, #-16]!
  106cb0:	910003fd 	mov	x29, sp
  106cb4:	9400079f 	bl	108b30 <plat_get_syscnt_freq2>
  106cb8:	2a0003e0 	mov	w0, w0
  106cbc:	d51be000 	msr	cntfrq_el0, x0
  106cc0:	a8c17bfd 	ldp	x29, x30, [sp], #16
  106cc4:	140008ec 	b	109074 <init_cpu_ops>

0000000000106cc8 <psci_setup>:
  106cc8:	a9b87bfd 	stp	x29, x30, [sp, #-128]!
  106ccc:	910003fd 	mov	x29, sp
  106cd0:	a90153f3 	stp	x19, x20, [sp, #16]
  106cd4:	52800013 	mov	w19, #0x0                   	// #0
  106cd8:	a9025bf5 	stp	x21, x22, [sp, #32]
  106cdc:	aa0003f5 	mov	x21, x0
  106ce0:	90fff8f6 	adrp	x22, 22000 <percpu_data>
  106ce4:	a90363f7 	stp	x23, x24, [sp, #48]
  106ce8:	910402d6 	add	x22, x22, #0x100
  106cec:	52800017 	mov	w23, #0x0                   	// #0
  106cf0:	a9046bf9 	stp	x25, x26, [sp, #64]
  106cf4:	90fff8fa 	adrp	x26, 22000 <percpu_data>
  106cf8:	9128435a 	add	x26, x26, #0xa10
  106cfc:	a90573fb 	stp	x27, x28, [sp, #80]
  106d00:	97ffffeb 	bl	106cac <psci_arch_setup>
  106d04:	940003fe 	bl	107cfc <plat_get_power_domain_tree_desc>
  106d08:	aa0003fb 	mov	x27, x0
  106d0c:	52800001 	mov	w1, #0x0                   	// #0
  106d10:	52800039 	mov	w25, #0x1                   	// #1
  106d14:	52800058 	mov	w24, #0x2                   	// #2
  106d18:	0b170323 	add	w3, w25, w23
  106d1c:	52800019 	mov	w25, #0x0                   	// #0
  106d20:	14000009 	b	106d44 <psci_setup+0x7c>
  106d24:	38774b7c 	ldrb	w28, [x27, w23, uxtw]
  106d28:	2a0103f3 	mov	w19, w1
  106d2c:	0b010384 	add	w4, w28, w1
  106d30:	6b04027f 	cmp	w19, w4
  106d34:	54000d43 	b.cc	106edc <psci_setup+0x214>  // b.lo, b.ul, b.last
  106d38:	0b1c0339 	add	w25, w25, w28
  106d3c:	110006f7 	add	w23, w23, #0x1
  106d40:	2a1303e1 	mov	w1, w19
  106d44:	6b17007f 	cmp	w3, w23
  106d48:	54fffee1 	b.ne	106d24 <psci_setup+0x5c>  // b.any
  106d4c:	71000718 	subs	w24, w24, #0x1
  106d50:	54001160 	b.eq	106f7c <psci_setup+0x2b4>  // b.none
  106d54:	3100071f 	cmn	w24, #0x1
  106d58:	54fffe01 	b.ne	106d18 <psci_setup+0x50>  // b.any
  106d5c:	90fff8e0 	adrp	x0, 22000 <percpu_data>
  106d60:	f0fff8f4 	adrp	x20, 25000 <mhu_secure_message_lock>
  106d64:	91332016 	add	x22, x0, #0xcc8
  106d68:	91008294 	add	x20, x20, #0x20
  106d6c:	b90cc813 	str	w19, [x0, #3272]
  106d70:	52800018 	mov	w24, #0x0                   	// #0
  106d74:	52800017 	mov	w23, #0x0                   	// #0
  106d78:	52800013 	mov	w19, #0x0                   	// #0
  106d7c:	b94002c0 	ldr	w0, [x22]
  106d80:	6b00027f 	cmp	w19, w0
  106d84:	54001003 	b.cc	106f84 <psci_setup+0x2bc>  // b.lo, b.ul, b.last
  106d88:	d53800b3 	mrs	x19, mpidr_el1
  106d8c:	94000ac2 	bl	109894 <plat_my_core_pos>
  106d90:	d37c7c00 	ubfiz	x0, x0, #4, #32
  106d94:	90fff8e2 	adrp	x2, 22000 <percpu_data>
  106d98:	91284042 	add	x2, x2, #0xa10
  106d9c:	92409e61 	and	x1, x19, #0xffffffffff
  106da0:	90fff8f3 	adrp	x19, 22000 <percpu_data>
  106da4:	9260dc21 	and	x1, x1, #0xffffffff00ffffff
  106da8:	91294274 	add	x20, x19, #0xa50
  106dac:	f8206841 	str	x1, [x2, x0]
  106db0:	97fffbf3 	bl	105d7c <psci_init_req_local_pwr_states>
  106db4:	52800040 	mov	w0, #0x2                   	// #2
  106db8:	97fffc3d 	bl	105eac <psci_set_pwr_domains_to_run>
  106dbc:	f94006a0 	ldr	x0, [x21, #8]
  106dc0:	aa1403e1 	mov	x1, x20
  106dc4:	94000359 	bl	107b28 <plat_setup_psci_ops>
  106dc8:	aa1403e0 	mov	x0, x20
  106dcc:	d2800101 	mov	x1, #0x8                   	// #8
  106dd0:	94000994 	bl	109420 <flush_dcache_range>
  106dd4:	f9452a61 	ldr	x1, [x19, #2640]
  106dd8:	52808223 	mov	w3, #0x411                 	// #1041
  106ddc:	90fff8e0 	adrp	x0, 22000 <percpu_data>
  106de0:	f9400822 	ldr	x2, [x1, #16]
  106de4:	f100005f 	cmp	x2, #0x0
  106de8:	528082a2 	mov	w2, #0x415                 	// #1045
  106dec:	1a831042 	csel	w2, w2, w3, ne  // ne = any
  106df0:	b90ccc02 	str	w2, [x0, #3276]
  106df4:	f9400423 	ldr	x3, [x1, #8]
  106df8:	b40000a3 	cbz	x3, 106e0c <psci_setup+0x144>
  106dfc:	f9401423 	ldr	x3, [x1, #40]
  106e00:	b4000063 	cbz	x3, 106e0c <psci_setup+0x144>
  106e04:	321d0042 	orr	w2, w2, #0x8
  106e08:	b90ccc02 	str	w2, [x0, #3276]
  106e0c:	f9401022 	ldr	x2, [x1, #32]
  106e10:	b4000162 	cbz	x2, 106e3c <psci_setup+0x174>
  106e14:	f9401c22 	ldr	x2, [x1, #56]
  106e18:	b4000122 	cbz	x2, 106e3c <psci_setup+0x174>
  106e1c:	f9403424 	ldr	x4, [x1, #104]
  106e20:	52880045 	mov	w5, #0x4002                	// #16386
  106e24:	b94ccc02 	ldr	w2, [x0, #3276]
  106e28:	f100009f 	cmp	x4, #0x0
  106e2c:	321f0043 	orr	w3, w2, #0x2
  106e30:	2a050042 	orr	w2, w2, w5
  106e34:	1a831042 	csel	w2, w2, w3, ne  // ne = any
  106e38:	b90ccc02 	str	w2, [x0, #3276]
  106e3c:	f9402422 	ldr	x2, [x1, #72]
  106e40:	b4000082 	cbz	x2, 106e50 <psci_setup+0x188>
  106e44:	b94ccc02 	ldr	w2, [x0, #3276]
  106e48:	32180042 	orr	w2, w2, #0x100
  106e4c:	b90ccc02 	str	w2, [x0, #3276]
  106e50:	f9402822 	ldr	x2, [x1, #80]
  106e54:	b4000082 	cbz	x2, 106e64 <psci_setup+0x19c>
  106e58:	b94ccc02 	ldr	w2, [x0, #3276]
  106e5c:	32170042 	orr	w2, w2, #0x200
  106e60:	b90ccc02 	str	w2, [x0, #3276]
  106e64:	f9404022 	ldr	x2, [x1, #128]
  106e68:	b4000082 	cbz	x2, 106e78 <psci_setup+0x1b0>
  106e6c:	b94ccc02 	ldr	w2, [x0, #3276]
  106e70:	32130042 	orr	w2, w2, #0x2000
  106e74:	b90ccc02 	str	w2, [x0, #3276]
  106e78:	f9404822 	ldr	x2, [x1, #144]
  106e7c:	b40000c2 	cbz	x2, 106e94 <psci_setup+0x1cc>
  106e80:	f9404c22 	ldr	x2, [x1, #152]
  106e84:	b4000082 	cbz	x2, 106e94 <psci_setup+0x1cc>
  106e88:	b94ccc02 	ldr	w2, [x0, #3276]
  106e8c:	320d0042 	orr	w2, w2, #0x80000
  106e90:	b90ccc02 	str	w2, [x0, #3276]
  106e94:	f9404422 	ldr	x2, [x1, #136]
  106e98:	b4000082 	cbz	x2, 106ea8 <psci_setup+0x1e0>
  106e9c:	b94ccc02 	ldr	w2, [x0, #3276]
  106ea0:	320c0042 	orr	w2, w2, #0x100000
  106ea4:	b90ccc02 	str	w2, [x0, #3276]
  106ea8:	f9405021 	ldr	x1, [x1, #160]
  106eac:	b4000081 	cbz	x1, 106ebc <psci_setup+0x1f4>
  106eb0:	b94ccc01 	ldr	w1, [x0, #3276]
  106eb4:	320e0021 	orr	w1, w1, #0x40000
  106eb8:	b90ccc01 	str	w1, [x0, #3276]
  106ebc:	52800000 	mov	w0, #0x0                   	// #0
  106ec0:	a94153f3 	ldp	x19, x20, [sp, #16]
  106ec4:	a9425bf5 	ldp	x21, x22, [sp, #32]
  106ec8:	a94363f7 	ldp	x23, x24, [sp, #48]
  106ecc:	a9446bf9 	ldp	x25, x26, [sp, #64]
  106ed0:	a94573fb 	ldp	x27, x28, [sp, #80]
  106ed4:	a8c87bfd 	ldp	x29, x30, [sp], #128
  106ed8:	d65f03c0 	ret
  106edc:	510006e2 	sub	w2, w23, #0x1
  106ee0:	12001e74 	and	w20, w19, #0xff
  106ee4:	340001b8 	cbz	w24, 106f18 <psci_setup+0x250>
  106ee8:	f0fff8e1 	adrp	x1, 25000 <mhu_secure_message_lock>
  106eec:	91008021 	add	x1, x1, #0x20
  106ef0:	8b34d034 	add	x20, x1, w20, sxtw #4
  106ef4:	d37c1e60 	ubfiz	x0, x19, #4, #8
  106ef8:	8b010000 	add	x0, x0, x1
  106efc:	39003698 	strb	w24, [x20, #13]
  106f00:	39003813 	strb	w19, [x0, #14]
  106f04:	52800040 	mov	w0, #0x2                   	// #2
  106f08:	b9000a82 	str	w2, [x20, #8]
  106f0c:	39003280 	strb	w0, [x20, #12]
  106f10:	11000673 	add	w19, w19, #0x1
  106f14:	17ffff87 	b	106d30 <psci_setup+0x68>
  106f18:	8b34d341 	add	x1, x26, w20, sxtw #4
  106f1c:	937c7e80 	sbfiz	x0, x20, #4, #32
  106f20:	290d13e3 	stp	w3, w4, [sp, #104]
  106f24:	b9000822 	str	w2, [x1, #8]
  106f28:	92800001 	mov	x1, #0xffffffffffffffff    	// #-1
  106f2c:	f8206b41 	str	x1, [x26, x0]
  106f30:	2a1403e0 	mov	w0, w20
  106f34:	940008f1 	bl	1092f8 <_cpu_data_by_index>
  106f38:	aa0003e1 	mov	x1, x0
  106f3c:	91006000 	add	x0, x0, #0x18
  106f40:	52800022 	mov	w2, #0x1                   	// #1
  106f44:	b9001822 	str	w2, [x1, #24]
  106f48:	52800061 	mov	w1, #0x3                   	// #3
  106f4c:	b9000401 	str	w1, [x0, #4]
  106f50:	52800041 	mov	w1, #0x2                   	// #2
  106f54:	39002001 	strb	w1, [x0, #8]
  106f58:	d2800181 	mov	x1, #0xc                   	// #12
  106f5c:	94000931 	bl	109420 <flush_dcache_range>
  106f60:	52804401 	mov	w1, #0x220                 	// #544
  106f64:	2a1403e0 	mov	w0, w20
  106f68:	52800022 	mov	w2, #0x1                   	// #1
  106f6c:	9ba15a81 	umaddl	x1, w20, w1, x22
  106f70:	97fff4a8 	bl	104210 <cm_set_context_by_index>
  106f74:	294d13e3 	ldp	w3, w4, [sp, #104]
  106f78:	17ffffe6 	b	106f10 <psci_setup+0x248>
  106f7c:	52800001 	mov	w1, #0x0                   	// #0
  106f80:	17ffff66 	b	106d18 <psci_setup+0x50>
  106f84:	9101e3e2 	add	x2, sp, #0x78
  106f88:	2a1303e0 	mov	w0, w19
  106f8c:	52800041 	mov	w1, #0x2                   	// #2
  106f90:	97fffbb5 	bl	105e64 <psci_get_parent_pwr_domain_nodes>
  106f94:	b9407fe2 	ldr	w2, [sp, #124]
  106f98:	6b02031f 	cmp	w24, w2
  106f9c:	2a0203e0 	mov	w0, w2
  106fa0:	54000060 	b.eq	106fac <psci_setup+0x2e4>  // b.none
  106fa4:	d37cec01 	lsl	x1, x0, #4
  106fa8:	b8216a93 	str	w19, [x20, x1]
  106fac:	8b001280 	add	x0, x20, x0, lsl #4
  106fb0:	b9400401 	ldr	w1, [x0, #4]
  106fb4:	11000421 	add	w1, w1, #0x1
  106fb8:	b9000401 	str	w1, [x0, #4]
  106fbc:	b9407be0 	ldr	w0, [sp, #120]
  106fc0:	6b0002ff 	cmp	w23, w0
  106fc4:	2a0003e1 	mov	w1, w0
  106fc8:	54000060 	b.eq	106fd4 <psci_setup+0x30c>  // b.none
  106fcc:	d37cec23 	lsl	x3, x1, #4
  106fd0:	b8236a93 	str	w19, [x20, x3]
  106fd4:	8b011281 	add	x1, x20, x1, lsl #4
  106fd8:	11000673 	add	w19, w19, #0x1
  106fdc:	2a0203f8 	mov	w24, w2
  106fe0:	2a0003f7 	mov	w23, w0
  106fe4:	b9400423 	ldr	w3, [x1, #4]
  106fe8:	11000463 	add	w3, w3, #0x1
  106fec:	b9000423 	str	w3, [x1, #4]
  106ff0:	17ffff63 	b	106d7c <psci_setup+0xb4>

0000000000106ff4 <psci_cpu_suspend_start>:
  106ff4:	a9b97bfd 	stp	x29, x30, [sp, #-112]!
  106ff8:	910003fd 	mov	x29, sp
  106ffc:	a90153f3 	stp	x19, x20, [sp, #16]
  107000:	2a0103f3 	mov	w19, w1
  107004:	aa0203f4 	mov	x20, x2
  107008:	a9025bf5 	stp	x21, x22, [sp, #32]
  10700c:	2a0303f6 	mov	w22, w3
  107010:	a90363f7 	stp	x23, x24, [sp, #48]
  107014:	a9046bf9 	stp	x25, x26, [sp, #64]
  107018:	aa0003f9 	mov	x25, x0
  10701c:	94000a1e 	bl	109894 <plat_my_core_pos>
  107020:	910183e2 	add	x2, sp, #0x60
  107024:	2a0003f8 	mov	w24, w0
  107028:	2a1303e1 	mov	w1, w19
  10702c:	f90033ff 	str	xzr, [sp, #96]
  107030:	97fffb8d 	bl	105e64 <psci_get_parent_pwr_domain_nodes>
  107034:	910183e1 	add	x1, sp, #0x60
  107038:	2a1303e0 	mov	w0, w19
  10703c:	97fffc3a 	bl	106124 <psci_acquire_pwr_domain_locks>
  107040:	d538c100 	mrs	x0, isr_el1
  107044:	b5000740 	cbnz	x0, 10712c <psci_cpu_suspend_start+0x138>
  107048:	aa1403e1 	mov	x1, x20
  10704c:	2a1303e0 	mov	w0, w19
  107050:	97fffbba 	bl	105f38 <psci_do_state_coordination>
  107054:	34000436 	cbz	w22, 1070d8 <psci_cpu_suspend_start+0xe4>
  107058:	aa1403e0 	mov	x0, x20
  10705c:	b0000035 	adrp	x21, 10c000 <__TEXT_END__>
  107060:	b000003a 	adrp	x26, 10c000 <__TEXT_END__>
  107064:	97fffc14 	bl	1060b4 <psci_find_max_off_lvl>
  107068:	912d62b5 	add	x21, x21, #0xb58
  10706c:	2a0003f7 	mov	w23, w0
  107070:	912d635a 	add	x26, x26, #0xb58
  107074:	eb1a02bf 	cmp	x21, x26
  107078:	54000523 	b.cc	10711c <psci_cpu_suspend_start+0x128>  // b.lo, b.ul, b.last
  10707c:	d53ed040 	mrs	x0, tpidr_el3
  107080:	b9001c13 	str	w19, [x0, #28]
  107084:	d53ed040 	mrs	x0, tpidr_el3
  107088:	d2800081 	mov	x1, #0x4                   	// #4
  10708c:	91007000 	add	x0, x0, #0x1c
  107090:	940008e4 	bl	109420 <flush_dcache_range>
  107094:	f0fff8c0 	adrp	x0, 22000 <percpu_data>
  107098:	f9452c00 	ldr	x0, [x0, #2648]
  10709c:	b40000a0 	cbz	x0, 1070b0 <psci_cpu_suspend_start+0xbc>
  1070a0:	f9400801 	ldr	x1, [x0, #16]
  1070a4:	b4000061 	cbz	x1, 1070b0 <psci_cpu_suspend_start+0xbc>
  1070a8:	2a1703e0 	mov	w0, w23
  1070ac:	d63f0020 	blr	x1
  1070b0:	f0fff8c0 	adrp	x0, 22000 <percpu_data>
  1070b4:	f9452800 	ldr	x0, [x0, #2640]
  1070b8:	f9400c01 	ldr	x1, [x0, #24]
  1070bc:	b4000061 	cbz	x1, 1070c8 <psci_cpu_suspend_start+0xd4>
  1070c0:	aa1403e0 	mov	x0, x20
  1070c4:	d63f0020 	blr	x1
  1070c8:	aa1903e0 	mov	x0, x25
  1070cc:	97fffa57 	bl	105a28 <cm_init_my_context>
  1070d0:	2a1703e0 	mov	w0, w23
  1070d4:	97fffcc4 	bl	1063e4 <psci_do_pwrdown_sequence>
  1070d8:	f0fff8c0 	adrp	x0, 22000 <percpu_data>
  1070dc:	52800015 	mov	w21, #0x0                   	// #0
  1070e0:	f9452800 	ldr	x0, [x0, #2640]
  1070e4:	f9401001 	ldr	x1, [x0, #32]
  1070e8:	aa1403e0 	mov	x0, x20
  1070ec:	d63f0020 	blr	x1
  1070f0:	910183e1 	add	x1, sp, #0x60
  1070f4:	2a1303e0 	mov	w0, w19
  1070f8:	97fffc26 	bl	106190 <psci_release_pwr_domain_locks>
  1070fc:	35000495 	cbnz	w21, 10718c <psci_cpu_suspend_start+0x198>
  107100:	f0fff8d5 	adrp	x21, 22000 <percpu_data>
  107104:	340001b6 	cbz	w22, 107138 <psci_cpu_suspend_start+0x144>
  107108:	f9452aa0 	ldr	x0, [x21, #2640]
  10710c:	f9402001 	ldr	x1, [x0, #64]
  107110:	b4000121 	cbz	x1, 107134 <psci_cpu_suspend_start+0x140>
  107114:	aa1403e0 	mov	x0, x20
  107118:	d63f0020 	blr	x1
  10711c:	f84086a1 	ldr	x1, [x21], #8
  107120:	d2800000 	mov	x0, #0x0                   	// #0
  107124:	d63f0020 	blr	x1
  107128:	17ffffd3 	b	107074 <psci_cpu_suspend_start+0x80>
  10712c:	52800035 	mov	w21, #0x1                   	// #1
  107130:	17fffff0 	b	1070f0 <psci_cpu_suspend_start+0xfc>
  107134:	94000890 	bl	109374 <psci_power_down_wfi>
  107138:	d503207f 	wfi
  10713c:	9101a3e2 	add	x2, sp, #0x68
  107140:	2a1303e1 	mov	w1, w19
  107144:	2a1803e0 	mov	w0, w24
  107148:	f90037ff 	str	xzr, [sp, #104]
  10714c:	97fffb46 	bl	105e64 <psci_get_parent_pwr_domain_nodes>
  107150:	9101a3e1 	add	x1, sp, #0x68
  107154:	2a1303e0 	mov	w0, w19
  107158:	97fffbf3 	bl	106124 <psci_acquire_pwr_domain_locks>
  10715c:	910163e1 	add	x1, sp, #0x58
  107160:	2a1303e0 	mov	w0, w19
  107164:	97fffb1c 	bl	105dd4 <psci_get_target_local_pwr_states>
  107168:	f9452aa0 	ldr	x0, [x21, #2640]
  10716c:	f9401c01 	ldr	x1, [x0, #56]
  107170:	910163e0 	add	x0, sp, #0x58
  107174:	d63f0020 	blr	x1
  107178:	2a1303e0 	mov	w0, w19
  10717c:	97fffb4c 	bl	105eac <psci_set_pwr_domains_to_run>
  107180:	9101a3e1 	add	x1, sp, #0x68
  107184:	2a1303e0 	mov	w0, w19
  107188:	97fffc02 	bl	106190 <psci_release_pwr_domain_locks>
  10718c:	a94153f3 	ldp	x19, x20, [sp, #16]
  107190:	a9425bf5 	ldp	x21, x22, [sp, #32]
  107194:	a94363f7 	ldp	x23, x24, [sp, #48]
  107198:	a9446bf9 	ldp	x25, x26, [sp, #64]
  10719c:	a8c77bfd 	ldp	x29, x30, [sp], #112
  1071a0:	d65f03c0 	ret

00000000001071a4 <psci_cpu_suspend_finish>:
  1071a4:	a9be7bfd 	stp	x29, x30, [sp, #-32]!
  1071a8:	f0fff8c0 	adrp	x0, 22000 <percpu_data>
  1071ac:	910003fd 	mov	x29, sp
  1071b0:	f9452800 	ldr	x0, [x0, #2640]
  1071b4:	a90153f3 	stp	x19, x20, [sp, #16]
  1071b8:	aa0103f3 	mov	x19, x1
  1071bc:	f9401c01 	ldr	x1, [x0, #56]
  1071c0:	aa1303e0 	mov	x0, x19
  1071c4:	d63f0020 	blr	x1
  1071c8:	9400065a 	bl	108b30 <plat_get_syscnt_freq2>
  1071cc:	2a0003e0 	mov	w0, w0
  1071d0:	d51be000 	msr	cntfrq_el0, x0
  1071d4:	f0fff8d4 	adrp	x20, 22000 <percpu_data>
  1071d8:	f9452e80 	ldr	x0, [x20, #2648]
  1071dc:	b4000120 	cbz	x0, 107200 <psci_cpu_suspend_finish+0x5c>
  1071e0:	f9401000 	ldr	x0, [x0, #32]
  1071e4:	b40000e0 	cbz	x0, 107200 <psci_cpu_suspend_finish+0x5c>
  1071e8:	aa1303e0 	mov	x0, x19
  1071ec:	97fffbb2 	bl	1060b4 <psci_find_max_off_lvl>
  1071f0:	f9452e81 	ldr	x1, [x20, #2648]
  1071f4:	2a0003e0 	mov	w0, w0
  1071f8:	f9401021 	ldr	x1, [x1, #32]
  1071fc:	d63f0020 	blr	x1
  107200:	d53ed040 	mrs	x0, tpidr_el3
  107204:	b0000033 	adrp	x19, 10c000 <__TEXT_END__>
  107208:	b0000034 	adrp	x20, 10c000 <__TEXT_END__>
  10720c:	912d6273 	add	x19, x19, #0xb58
  107210:	912d6294 	add	x20, x20, #0xb58
  107214:	52800061 	mov	w1, #0x3                   	// #3
  107218:	b9001c01 	str	w1, [x0, #28]
  10721c:	eb14027f 	cmp	x19, x20
  107220:	540000a3 	b.cc	107234 <psci_cpu_suspend_finish+0x90>  // b.lo, b.ul, b.last
  107224:	a94153f3 	ldp	x19, x20, [sp, #16]
  107228:	52800020 	mov	w0, #0x1                   	// #1
  10722c:	a8c27bfd 	ldp	x29, x30, [sp], #32
  107230:	17fffa30 	b	105af0 <cm_prepare_el3_exit>
  107234:	f8408661 	ldr	x1, [x19], #8
  107238:	d2800000 	mov	x0, #0x0                   	// #0
  10723c:	d63f0020 	blr	x1
  107240:	17fffff7 	b	10721c <psci_cpu_suspend_finish+0x78>

0000000000107244 <psci_system_off>:
  107244:	a9bf7bfd 	stp	x29, x30, [sp, #-16]!
  107248:	910003fd 	mov	x29, sp
  10724c:	97fffc65 	bl	1063e0 <psci_print_power_domain_map>
  107250:	f0fff8c0 	adrp	x0, 22000 <percpu_data>
  107254:	f9452c00 	ldr	x0, [x0, #2648]
  107258:	b4000080 	cbz	x0, 107268 <psci_system_off+0x24>
  10725c:	f9401c00 	ldr	x0, [x0, #56]
  107260:	b4000040 	cbz	x0, 107268 <psci_system_off+0x24>
  107264:	d63f0000 	blr	x0
  107268:	940003f5 	bl	10823c <console_flush>
  10726c:	f0fff8c0 	adrp	x0, 22000 <percpu_data>
  107270:	f9452800 	ldr	x0, [x0, #2640]
  107274:	f9402400 	ldr	x0, [x0, #72]
  107278:	d63f0000 	blr	x0

000000000010727c <psci_system_reset>:
  10727c:	a9bf7bfd 	stp	x29, x30, [sp, #-16]!
  107280:	910003fd 	mov	x29, sp
  107284:	97fffc57 	bl	1063e0 <psci_print_power_domain_map>
  107288:	f0fff8c0 	adrp	x0, 22000 <percpu_data>
  10728c:	f9452c00 	ldr	x0, [x0, #2648]
  107290:	b4000080 	cbz	x0, 1072a0 <psci_system_reset+0x24>
  107294:	f9402000 	ldr	x0, [x0, #64]
  107298:	b4000040 	cbz	x0, 1072a0 <psci_system_reset+0x24>
  10729c:	d63f0000 	blr	x0
  1072a0:	940003e7 	bl	10823c <console_flush>
  1072a4:	f0fff8c0 	adrp	x0, 22000 <percpu_data>
  1072a8:	f9452800 	ldr	x0, [x0, #2640]
  1072ac:	f9402800 	ldr	x0, [x0, #80]
  1072b0:	d63f0000 	blr	x0

00000000001072b4 <psci_system_reset2>:
  1072b4:	a9bd7bfd 	stp	x29, x30, [sp, #-48]!
  1072b8:	910003fd 	mov	x29, sp
  1072bc:	a90153f3 	stp	x19, x20, [sp, #16]
  1072c0:	2a0003f3 	mov	w19, w0
  1072c4:	aa0103f4 	mov	x20, x1
  1072c8:	f90013f5 	str	x21, [sp, #32]
  1072cc:	531f7e75 	lsr	w21, w19, #31
  1072d0:	97fffc44 	bl	1063e0 <psci_print_power_domain_map>
  1072d4:	36f80233 	tbz	w19, #31, 107318 <psci_system_reset2+0x64>
  1072d8:	f0fff8c0 	adrp	x0, 22000 <percpu_data>
  1072dc:	f9452c00 	ldr	x0, [x0, #2648]
  1072e0:	b5000300 	cbnz	x0, 107340 <psci_system_reset2+0x8c>
  1072e4:	940003d6 	bl	10823c <console_flush>
  1072e8:	f0fff8c0 	adrp	x0, 22000 <percpu_data>
  1072ec:	aa1403e2 	mov	x2, x20
  1072f0:	2a1303e1 	mov	w1, w19
  1072f4:	f9452800 	ldr	x0, [x0, #2640]
  1072f8:	f9405003 	ldr	x3, [x0, #160]
  1072fc:	2a1503e0 	mov	w0, w21
  107300:	d63f0060 	blr	x3
  107304:	93407c00 	sxtw	x0, w0
  107308:	a94153f3 	ldp	x19, x20, [sp, #16]
  10730c:	f94013f5 	ldr	x21, [sp, #32]
  107310:	a8c37bfd 	ldp	x29, x30, [sp], #48
  107314:	d65f03c0 	ret
  107318:	350001d3 	cbnz	w19, 107350 <psci_system_reset2+0x9c>
  10731c:	f0fff8c0 	adrp	x0, 22000 <percpu_data>
  107320:	f9452800 	ldr	x0, [x0, #2640]
  107324:	f9404c01 	ldr	x1, [x0, #152]
  107328:	b4fffd81 	cbz	x1, 1072d8 <psci_system_reset2+0x24>
  10732c:	52800000 	mov	w0, #0x0                   	// #0
  107330:	d63f0020 	blr	x1
  107334:	36fffd20 	tbz	w0, #31, 1072d8 <psci_system_reset2+0x24>
  107338:	92800000 	mov	x0, #0xffffffffffffffff    	// #-1
  10733c:	17fffff3 	b	107308 <psci_system_reset2+0x54>
  107340:	f9402000 	ldr	x0, [x0, #64]
  107344:	b4fffd00 	cbz	x0, 1072e4 <psci_system_reset2+0x30>
  107348:	d63f0000 	blr	x0
  10734c:	17ffffe6 	b	1072e4 <psci_system_reset2+0x30>
  107350:	92800020 	mov	x0, #0xfffffffffffffffe    	// #-2
  107354:	17ffffed 	b	107308 <psci_system_reset2+0x54>

0000000000107358 <bl31_early_platform_setup2>:
  107358:	a9be7bfd 	stp	x29, x30, [sp, #-32]!
  10735c:	52984002 	mov	w2, #0xc200                	// #49664
  107360:	5286c001 	mov	w1, #0x3600                	// #13824
  107364:	910003fd 	mov	x29, sp
  107368:	72a00022 	movk	w2, #0x1, lsl #16
  10736c:	72a02dc1 	movk	w1, #0x16e, lsl #16
  107370:	f0fff8c3 	adrp	x3, 22000 <percpu_data>
  107374:	d2a0a000 	mov	x0, #0x5000000             	// #83886080
  107378:	912c4063 	add	x3, x3, #0xb10
  10737c:	f9000bf3 	str	x19, [sp, #16]
  107380:	940008f0 	bl	109740 <console_16550_register>
  107384:	d2802021 	mov	x1, #0x101                 	// #257
  107388:	f0fff8c0 	adrp	x0, 22000 <percpu_data>
  10738c:	f2a00b01 	movk	x1, #0x58, lsl #16
  107390:	912ae013 	add	x19, x0, #0xab8
  107394:	f9055c01 	str	x1, [x0, #2744]
  107398:	940005e9 	bl	108b3c <plat_get_ns_image_entrypoint>
  10739c:	f9000660 	str	x0, [x19, #8]
  1073a0:	52807920 	mov	w0, #0x3c9                 	// #969
  1073a4:	b9001260 	str	w0, [x19, #16]
  1073a8:	b9400660 	ldr	w0, [x19, #4]
  1073ac:	32000000 	orr	w0, w0, #0x1
  1073b0:	b9000660 	str	w0, [x19, #4]
  1073b4:	d53800a0 	mrs	x0, mpidr_el1
  1073b8:	f9400bf3 	ldr	x19, [sp, #16]
  1073bc:	a8c27bfd 	ldp	x29, x30, [sp], #32
  1073c0:	140000df 	b	10773c <sunxi_disable_secondary_cpus>

00000000001073c4 <bl31_plat_arch_setup>:
  1073c4:	52800000 	mov	w0, #0x0                   	// #0
  1073c8:	140005df 	b	108b44 <sunxi_configure_mmu_el3>

00000000001073cc <bl31_platform_setup>:
  1073cc:	a9ba7bfd 	stp	x29, x30, [sp, #-96]!
  1073d0:	910003fd 	mov	x29, sp
  1073d4:	a90153f3 	stp	x19, x20, [sp, #16]
  1073d8:	a9025bf5 	stp	x21, x22, [sp, #32]
  1073dc:	a90363f7 	stp	x23, x24, [sp, #48]
  1073e0:	a9046bf9 	stp	x25, x26, [sp, #64]
  1073e4:	940005f9 	bl	108bc8 <sunxi_read_soc_id>
  1073e8:	12003c14 	and	w20, w0, #0xffff
  1073ec:	5282e300 	mov	w0, #0x1718                	// #5912
  1073f0:	2a1403f5 	mov	w21, w20
  1073f4:	6b34201f 	cmp	w0, w20, uxth
  1073f8:	54000420 	b.eq	10747c <bl31_platform_setup+0xb0>  // b.none
  1073fc:	5282e500 	mov	w0, #0x1728                	// #5928
  107400:	6b00029f 	cmp	w20, w0
  107404:	54000420 	b.eq	107488 <bl31_platform_setup+0xbc>  // b.none
  107408:	b0000020 	adrp	x0, 10c000 <__TEXT_END__>
  10740c:	b0000021 	adrp	x1, 10c000 <__TEXT_END__>
  107410:	91207c00 	add	x0, x0, #0x81f
  107414:	91203421 	add	x1, x1, #0x80d
  107418:	5282d122 	mov	w2, #0x1689                	// #5769
  10741c:	6b02029f 	cmp	w20, w2
  107420:	9a800021 	csel	x1, x1, x0, eq  // eq = none
  107424:	2a1403e2 	mov	w2, w20
  107428:	b0000020 	adrp	x0, 10c000 <__TEXT_END__>
  10742c:	d2a18016 	mov	x22, #0xc000000             	// #201326592
  107430:	91209c00 	add	x0, x0, #0x827
  107434:	d281001a 	mov	x26, #0x800                 	// #2048
  107438:	aa1603f9 	mov	x25, x22
  10743c:	d2a94017 	mov	x23, #0x4a000000            	// #1241513984
  107440:	b2406ff8 	mov	x24, #0xfffffff             	// #268435455
  107444:	f2a1801a 	movk	x26, #0xc00, lsl #16
  107448:	94000316 	bl	1080a0 <tf_log>
  10744c:	97fff722 	bl	1050d4 <generic_delay_timer_init>
  107450:	f94002c0 	ldr	x0, [x22]
  107454:	eb17001f 	cmp	x0, x23
  107458:	540001e0 	b.eq	107494 <bl31_platform_setup+0xc8>  // b.none
  10745c:	910022d6 	add	x22, x22, #0x8
  107460:	eb1a02df 	cmp	x22, x26
  107464:	54ffff61 	b.ne	107450 <bl31_platform_setup+0x84>  // b.any
  107468:	b0000020 	adrp	x0, 10c000 <__TEXT_END__>
  10746c:	d2800013 	mov	x19, #0x0                   	// #0
  107470:	9121e800 	add	x0, x0, #0x87a
  107474:	9400030b 	bl	1080a0 <tf_log>
  107478:	1400001c 	b	1074e8 <bl31_platform_setup+0x11c>
  10747c:	b0000021 	adrp	x1, 10c000 <__TEXT_END__>
  107480:	91206421 	add	x1, x1, #0x819
  107484:	17ffffe8 	b	107424 <bl31_platform_setup+0x58>
  107488:	b0000021 	adrp	x1, 10c000 <__TEXT_END__>
  10748c:	91207021 	add	x1, x1, #0x81c
  107490:	17ffffe5 	b	107424 <bl31_platform_setup+0x58>
  107494:	f94006d3 	ldr	x19, [x22, #8]
  107498:	eb18027f 	cmp	x19, x24
  10749c:	54fffe08 	b.hi	10745c <bl31_platform_setup+0x90>  // b.pmore
  1074a0:	8b190273 	add	x19, x19, x25
  1074a4:	aa1303e0 	mov	x0, x19
  1074a8:	94000903 	bl	1098b4 <fdt_check_header>
  1074ac:	35fffd80 	cbnz	w0, 10745c <bl31_platform_setup+0x90>
  1074b0:	b0000022 	adrp	x2, 10c000 <__TEXT_END__>
  1074b4:	91224042 	add	x2, x2, #0x890
  1074b8:	910173e3 	add	x3, sp, #0x5c
  1074bc:	aa1303e0 	mov	x0, x19
  1074c0:	52800001 	mov	w1, #0x0                   	// #0
  1074c4:	94000b0b 	bl	10a0f0 <fdt_getprop>
  1074c8:	aa0003e2 	mov	x2, x0
  1074cc:	b5000060 	cbnz	x0, 1074d8 <bl31_platform_setup+0x10c>
  1074d0:	b0000022 	adrp	x2, 10c000 <__TEXT_END__>
  1074d4:	91207c42 	add	x2, x2, #0x81f
  1074d8:	b0000020 	adrp	x0, 10c000 <__TEXT_END__>
  1074dc:	aa1303e1 	mov	x1, x19
  1074e0:	91214000 	add	x0, x0, #0x850
  1074e4:	940002ef 	bl	1080a0 <tf_log>
  1074e8:	b0000020 	adrp	x0, 10c000 <__TEXT_END__>
  1074ec:	91066000 	add	x0, x0, #0x198
  1074f0:	97fff6c3 	bl	104ffc <gicv2_driver_init>
  1074f4:	97fff6ac 	bl	104fa4 <gicv2_distif_init>
  1074f8:	97fff699 	bl	104f5c <gicv2_pcpu_distif_init>
  1074fc:	97fff688 	bl	104f1c <gicv2_cpuif_enable>
  107500:	940001e6 	bl	107c98 <sunxi_security_setup>
  107504:	5282d120 	mov	w0, #0x1689                	// #5769
  107508:	6b00029f 	cmp	w20, w0
  10750c:	54000141 	b.ne	107534 <bl31_platform_setup+0x168>  // b.any
  107510:	d2820a80 	mov	x0, #0x1054                	// #4180
  107514:	52863001 	mov	w1, #0x3180                	// #12672
  107518:	f2a06000 	movk	x0, #0x300, lsl #16
  10751c:	b9000001 	str	w1, [x0]
  107520:	d2820b80 	mov	x0, #0x105c                	// #4188
  107524:	52800021 	mov	w1, #0x1                   	// #1
  107528:	f2a06000 	movk	x0, #0x300, lsl #16
  10752c:	b9000001 	str	w1, [x0]
  107530:	14000004 	b	107540 <bl31_platform_setup+0x174>
  107534:	5282e300 	mov	w0, #0x1718                	// #5912
  107538:	6b00029f 	cmp	w20, w0
  10753c:	54ffff20 	b.eq	107520 <bl31_platform_setup+0x154>  // b.none
  107540:	aa1303e1 	mov	x1, x19
  107544:	2a1503e0 	mov	w0, w21
  107548:	a94153f3 	ldp	x19, x20, [sp, #16]
  10754c:	a9425bf5 	ldp	x21, x22, [sp, #32]
  107550:	a94363f7 	ldp	x23, x24, [sp, #48]
  107554:	a9446bf9 	ldp	x25, x26, [sp, #64]
  107558:	a8c67bfd 	ldp	x29, x30, [sp], #96
  10755c:	1400021f 	b	107dd8 <sunxi_pmic_setup>

0000000000107560 <bl31_plat_get_next_image_ep_info>:
  107560:	7100041f 	cmp	w0, #0x1
  107564:	54000100 	b.eq	107584 <bl31_plat_get_next_image_ep_info+0x24>  // b.none
  107568:	35000140 	cbnz	w0, 107590 <bl31_plat_get_next_image_ep_info+0x30>
  10756c:	f0fff8c0 	adrp	x0, 22000 <percpu_data>
  107570:	91298000 	add	x0, x0, #0xa60
  107574:	f9400401 	ldr	x1, [x0, #8]
  107578:	f100003f 	cmp	x1, #0x0
  10757c:	9a9f1000 	csel	x0, x0, xzr, ne  // ne = any
  107580:	d65f03c0 	ret
  107584:	f0fff8c0 	adrp	x0, 22000 <percpu_data>
  107588:	912ae000 	add	x0, x0, #0xab8
  10758c:	17fffffd 	b	107580 <bl31_plat_get_next_image_ep_info+0x20>
  107590:	d2800000 	mov	x0, #0x0                   	// #0
  107594:	17fffffb 	b	107580 <bl31_plat_get_next_image_ep_info+0x20>

0000000000107598 <sunxi_cpu_off>:
  107598:	d2801806 	mov	x6, #0xc0                  	// #192
  10759c:	d2800024 	mov	x4, #0x1                   	// #1
  1075a0:	f2a12026 	movk	x6, #0x901, lsl #16
  1075a4:	9ac02085 	lsl	x5, x4, x0
  1075a8:	12001c02 	and	w2, w0, #0xff
  1075ac:	2a2503e3 	mvn	w3, w5
  1075b0:	b94000c1 	ldr	w1, [x6]
  1075b4:	0a250021 	bic	w1, w1, w5
  1075b8:	b90000c1 	str	w1, [x6]
  1075bc:	d53800a1 	mrs	x1, mpidr_el1
  1075c0:	eb01001f 	cmp	x0, x1
  1075c4:	54000380 	b.eq	107634 <sunxi_cpu_off+0x9c>  // b.none
  1075c8:	53083c00 	ubfx	w0, w0, #8, #8
  1075cc:	34000102 	cbz	w2, 1075ec <sunxi_cpu_off+0x54>
  1075d0:	52802221 	mov	w1, #0x111                 	// #273
  1075d4:	72a03801 	movk	w1, #0x1c0, lsl #16
  1075d8:	0b010001 	add	w1, w0, w1
  1075dc:	d37e6421 	ubfiz	x1, x1, #2, #26
  1075e0:	b9400024 	ldr	w4, [x1]
  1075e4:	2a050084 	orr	w4, w4, w5
  1075e8:	b9000024 	str	w4, [x1]
  1075ec:	52802201 	mov	w1, #0x110                 	// #272
  1075f0:	72a03801 	movk	w1, #0x1c0, lsl #16
  1075f4:	0b010000 	add	w0, w0, w1
  1075f8:	d37e6401 	ubfiz	x1, x0, #2, #26
  1075fc:	b9400024 	ldr	w4, [x1]
  107600:	0a040063 	and	w3, w3, w4
  107604:	b9000023 	str	w3, [x1]
  107608:	529f9a81 	mov	w1, #0xfcd4                	// #64724
  10760c:	72bf57e1 	movk	w1, #0xfabf, lsl #16
  107610:	0b000820 	add	w0, w1, w0, lsl #2
  107614:	0b020000 	add	w0, w0, w2
  107618:	531e7400 	lsl	w0, w0, #2
  10761c:	b9400001 	ldr	w1, [x0]
  107620:	7103fc3f 	cmp	w1, #0xff
  107624:	54000060 	b.eq	107630 <sunxi_cpu_off+0x98>  // b.none
  107628:	52801fe1 	mov	w1, #0xff                  	// #255
  10762c:	b9000001 	str	w1, [x0]
  107630:	d65f03c0 	ret
  107634:	1ac22082 	lsl	w2, w4, w2
  107638:	d2800d81 	mov	x1, #0x6c                  	// #108
  10763c:	d0000020 	adrp	x0, 10d000 <sunxi_psci_ops>
  107640:	91043000 	add	x0, x0, #0x10c
  107644:	140005b8 	b	108d24 <sunxi_execute_arisc_code>

0000000000107648 <sunxi_cpu_on>:
  107648:	53083c03 	ubfx	w3, w0, #8, #8
  10764c:	52880001 	mov	w1, #0x4000                	// #16384
  107650:	72a04801 	movk	w1, #0x240, lsl #16
  107654:	0b010061 	add	w1, w3, w1
  107658:	d2800025 	mov	x5, #0x1                   	// #1
  10765c:	12001c08 	and	w8, w0, #0xff
  107660:	531e7427 	lsl	w7, w1, #2
  107664:	9ac020a0 	lsl	x0, x5, x0
  107668:	11640463 	add	w3, w3, #0x901, lsl #12
  10766c:	1100610a 	add	w10, w8, #0x18
  107670:	11000463 	add	w3, w3, #0x1
  107674:	531e7424 	lsl	w4, w1, #2
  107678:	b94000e2 	ldr	w2, [x7]
  10767c:	9aca20a5 	lsl	x5, x5, x10
  107680:	d37c6063 	ubfiz	x3, x3, #4, #25
  107684:	2a2003e9 	mvn	w9, w0
  107688:	0a200042 	bic	w2, w2, w0
  10768c:	b90000e2 	str	w2, [x7]
  107690:	52808802 	mov	w2, #0x440                 	// #1088
  107694:	72bfbfe2 	movk	w2, #0xfdff, lsl #16
  107698:	0b010842 	add	w2, w2, w1, lsl #2
  10769c:	b9400046 	ldr	w6, [x2]
  1076a0:	0a2000c6 	bic	w6, w6, w0
  1076a4:	b9000046 	str	w6, [x2]
  1076a8:	b9400066 	ldr	w6, [x3]
  1076ac:	2a0500c5 	orr	w5, w6, w5
  1076b0:	b9000065 	str	w5, [x3]
  1076b4:	52802283 	mov	w3, #0x114                 	// #276
  1076b8:	72bf17e3 	movk	w3, #0xf8bf, lsl #16
  1076bc:	0b010861 	add	w1, w3, w1, lsl #2
  1076c0:	0b080021 	add	w1, w1, w8
  1076c4:	531e7421 	lsl	w1, w1, #2
  1076c8:	b9400023 	ldr	w3, [x1]
  1076cc:	34000143 	cbz	w3, 1076f4 <sunxi_cpu_on+0xac>
  1076d0:	52801fc3 	mov	w3, #0xfe                  	// #254
  1076d4:	b9000023 	str	w3, [x1]
  1076d8:	52801f03 	mov	w3, #0xf8                  	// #248
  1076dc:	b9000023 	str	w3, [x1]
  1076e0:	52801c03 	mov	w3, #0xe0                  	// #224
  1076e4:	b9000023 	str	w3, [x1]
  1076e8:	52801003 	mov	w3, #0x80                  	// #128
  1076ec:	b9000023 	str	w3, [x1]
  1076f0:	b900003f 	str	wzr, [x1]
  1076f4:	52808881 	mov	w1, #0x444                 	// #1092
  1076f8:	72bfbfe1 	movk	w1, #0xfdff, lsl #16
  1076fc:	0b010081 	add	w1, w4, w1
  107700:	b9400023 	ldr	w3, [x1]
  107704:	0a090063 	and	w3, w3, w9
  107708:	b9000023 	str	w3, [x1]
  10770c:	b9400041 	ldr	w1, [x2]
  107710:	2a000021 	orr	w1, w1, w0
  107714:	b9000041 	str	w1, [x2]
  107718:	d2801802 	mov	x2, #0xc0                  	// #192
  10771c:	b94000e1 	ldr	w1, [x7]
  107720:	f2a12022 	movk	x2, #0x901, lsl #16
  107724:	2a000021 	orr	w1, w1, w0
  107728:	b90000e1 	str	w1, [x7]
  10772c:	b9400041 	ldr	w1, [x2]
  107730:	2a000020 	orr	w0, w1, w0
  107734:	b9000040 	str	w0, [x2]
  107738:	d65f03c0 	ret

000000000010773c <sunxi_disable_secondary_cpus>:
  10773c:	a9be7bfd 	stp	x29, x30, [sp, #-32]!
  107740:	910003fd 	mov	x29, sp
  107744:	f9000bf3 	str	x19, [sp, #16]
  107748:	aa0003f3 	mov	x19, x0
  10774c:	d2b00000 	mov	x0, #0x80000000            	// #2147483648
  107750:	eb00027f 	cmp	x19, x0
  107754:	540000a0 	b.eq	107768 <sunxi_disable_secondary_cpus+0x2c>  // b.none
  107758:	97ffff90 	bl	107598 <sunxi_cpu_off>
  10775c:	320107e0 	mov	w0, #0x80000001            	// #-2147483647
  107760:	eb00027f 	cmp	x19, x0
  107764:	540000e0 	b.eq	107780 <sunxi_disable_secondary_cpus+0x44>  // b.none
  107768:	320107e0 	mov	w0, #0x80000001            	// #-2147483647
  10776c:	97ffff8b 	bl	107598 <sunxi_cpu_off>
  107770:	d2800040 	mov	x0, #0x2                   	// #2
  107774:	f2b00000 	movk	x0, #0x8000, lsl #16
  107778:	eb00027f 	cmp	x19, x0
  10777c:	540000e0 	b.eq	107798 <sunxi_disable_secondary_cpus+0x5c>  // b.none
  107780:	d2800040 	mov	x0, #0x2                   	// #2
  107784:	f2b00000 	movk	x0, #0x8000, lsl #16
  107788:	97ffff84 	bl	107598 <sunxi_cpu_off>
  10778c:	32010be0 	mov	w0, #0x80000003            	// #-2147483645
  107790:	eb00027f 	cmp	x19, x0
  107794:	540000a0 	b.eq	1077a8 <sunxi_disable_secondary_cpus+0x6c>  // b.none
  107798:	f9400bf3 	ldr	x19, [sp, #16]
  10779c:	32010be0 	mov	w0, #0x80000003            	// #-2147483645
  1077a0:	a8c27bfd 	ldp	x29, x30, [sp], #32
  1077a4:	17ffff7d 	b	107598 <sunxi_cpu_off>
  1077a8:	f9400bf3 	ldr	x19, [sp, #16]
  1077ac:	a8c27bfd 	ldp	x29, x30, [sp], #32
  1077b0:	d65f03c0 	ret

00000000001077b4 <sunxi_cpu_standby>:
  1077b4:	d53e1100 	mrs	x0, scr_el3
  1077b8:	b27f0001 	orr	x1, x0, #0x2
  1077bc:	d51e1101 	msr	scr_el3, x1
  1077c0:	d503207f 	wfi
  1077c4:	d51e1100 	msr	scr_el3, x0
  1077c8:	d65f03c0 	ret

00000000001077cc <sunxi_validate_power_state>:
  1077cc:	d3586402 	ubfx	x2, x0, #24, #2
  1077d0:	d3504003 	ubfx	x3, x0, #16, #1
  1077d4:	71000c5f 	cmp	w2, #0x3
  1077d8:	54000360 	b.eq	107844 <sunxi_validate_power_state+0x78>  // b.none
  1077dc:	12003c00 	and	w0, w0, #0xffff
  1077e0:	350001a3 	cbnz	w3, 107814 <sunxi_validate_power_state+0x48>
  1077e4:	35000300 	cbnz	w0, 107844 <sunxi_validate_power_state+0x78>
  1077e8:	7100085f 	cmp	w2, #0x2
  1077ec:	540002c0 	b.eq	107844 <sunxi_validate_power_state+0x78>  // b.none
  1077f0:	52800020 	mov	w0, #0x1                   	// #1
  1077f4:	39000020 	strb	w0, [x1]
  1077f8:	34000042 	cbz	w2, 107800 <sunxi_validate_power_state+0x34>
  1077fc:	39000420 	strb	w0, [x1, #1]
  107800:	11000442 	add	w2, w2, #0x1
  107804:	71000c5f 	cmp	w2, #0x3
  107808:	54000181 	b.ne	107838 <sunxi_validate_power_state+0x6c>  // b.any
  10780c:	52800000 	mov	w0, #0x0                   	// #0
  107810:	d65f03c0 	ret
  107814:	35000180 	cbnz	w0, 107844 <sunxi_validate_power_state+0x78>
  107818:	52800040 	mov	w0, #0x2                   	// #2
  10781c:	39000020 	strb	w0, [x1]
  107820:	34ffff02 	cbz	w2, 107800 <sunxi_validate_power_state+0x34>
  107824:	39000420 	strb	w0, [x1, #1]
  107828:	7100085f 	cmp	w2, #0x2
  10782c:	54fffea1 	b.ne	107800 <sunxi_validate_power_state+0x34>  // b.any
  107830:	39000822 	strb	w2, [x1, #2]
  107834:	17fffff3 	b	107800 <sunxi_validate_power_state+0x34>
  107838:	3822683f 	strb	wzr, [x1, x2]
  10783c:	91000442 	add	x2, x2, #0x1
  107840:	17fffff1 	b	107804 <sunxi_validate_power_state+0x38>
  107844:	12800020 	mov	w0, #0xfffffffe            	// #-2
  107848:	17fffff2 	b	107810 <sunxi_validate_power_state+0x44>

000000000010784c <sunxi_validate_ns_entrypoint>:
  10784c:	b24077e1 	mov	x1, #0x3fffffff            	// #1073741823
  107850:	eb01001f 	cmp	x0, x1
  107854:	12800100 	mov	w0, #0xfffffff7            	// #-9
  107858:	1a9f9000 	csel	w0, w0, wzr, ls  // ls = plast
  10785c:	d65f03c0 	ret

0000000000107860 <sunxi_get_sys_suspend_power_state>:
  107860:	52800041 	mov	w1, #0x2                   	// #2
  107864:	39000001 	strb	w1, [x0]
  107868:	39000401 	strb	w1, [x0, #1]
  10786c:	39000801 	strb	w1, [x0, #2]
  107870:	d65f03c0 	ret

0000000000107874 <sunxi_pwr_down_wfi>:
  107874:	a9bf7bfd 	stp	x29, x30, [sp, #-16]!
  107878:	910003fd 	mov	x29, sp
  10787c:	d53800a0 	mrs	x0, mpidr_el1
  107880:	97ffff46 	bl	107598 <sunxi_cpu_off>
  107884:	d503207f 	wfi
  107888:	17ffffff 	b	107884 <sunxi_pwr_down_wfi+0x10>

000000000010788c <sunxi_get_node_hw_state>:
  10788c:	7100083f 	cmp	w1, #0x2
  107890:	540000e1 	b.ne	1078ac <sunxi_get_node_hw_state+0x20>  // b.any
  107894:	52800000 	mov	w0, #0x0                   	// #0
  107898:	d65f03c0 	ret
  10789c:	52800000 	mov	w0, #0x0                   	// #0
  1078a0:	a94153f3 	ldp	x19, x20, [sp, #16]
  1078a4:	a8c37bfd 	ldp	x29, x30, [sp], #48
  1078a8:	d65f03c0 	ret
  1078ac:	a9bd7bfd 	stp	x29, x30, [sp, #-48]!
  1078b0:	910003fd 	mov	x29, sp
  1078b4:	9100a3e2 	add	x2, sp, #0x28
  1078b8:	a90153f3 	stp	x19, x20, [sp, #16]
  1078bc:	2a0103f4 	mov	w20, w1
  1078c0:	aa0003f3 	mov	x19, x0
  1078c4:	9100b3e1 	add	x1, sp, #0x2c
  1078c8:	97fff470 	bl	104a88 <scpi_get_css_power_state>
  1078cc:	350001c0 	cbnz	w0, 107904 <sunxi_get_node_hw_state+0x78>
  1078d0:	7100069f 	cmp	w20, #0x1
  1078d4:	540000e1 	b.ne	1078f0 <sunxi_get_node_hw_state+0x64>  // b.any
  1078d8:	b9402be0 	ldr	w0, [sp, #40]
  1078dc:	34fffe00 	cbz	w0, 10789c <sunxi_get_node_hw_state+0x10>
  1078e0:	7100041f 	cmp	w0, #0x1
  1078e4:	1a9f17e0 	cset	w0, eq  // eq = none
  1078e8:	11000400 	add	w0, w0, #0x1
  1078ec:	17ffffed 	b	1078a0 <sunxi_get_node_hw_state+0x14>
  1078f0:	b9402fe0 	ldr	w0, [sp, #44]
  1078f4:	9ad32400 	lsr	x0, x0, x19
  1078f8:	aa2003e0 	mvn	x0, x0
  1078fc:	12000000 	and	w0, w0, #0x1
  107900:	17ffffe8 	b	1078a0 <sunxi_get_node_hw_state+0x14>
  107904:	12800000 	mov	w0, #0xffffffff            	// #-1
  107908:	17ffffe6 	b	1078a0 <sunxi_get_node_hw_state+0x14>

000000000010790c <sunxi_pwr_domain_on_finish>:
  10790c:	a9be7bfd 	stp	x29, x30, [sp, #-32]!
  107910:	910003fd 	mov	x29, sp
  107914:	f9000bf3 	str	x19, [sp, #16]
  107918:	aa0003f3 	mov	x19, x0
  10791c:	39400800 	ldrb	w0, [x0, #2]
  107920:	7100081f 	cmp	w0, #0x2
  107924:	54000041 	b.ne	10792c <sunxi_pwr_domain_on_finish+0x20>  // b.any
  107928:	97fff59f 	bl	104fa4 <gicv2_distif_init>
  10792c:	39400260 	ldrb	w0, [x19]
  107930:	7100081f 	cmp	w0, #0x2
  107934:	540000a1 	b.ne	107948 <sunxi_pwr_domain_on_finish+0x3c>  // b.any
  107938:	97fff589 	bl	104f5c <gicv2_pcpu_distif_init>
  10793c:	f9400bf3 	ldr	x19, [sp, #16]
  107940:	a8c27bfd 	ldp	x29, x30, [sp], #32
  107944:	17fff576 	b	104f1c <gicv2_cpuif_enable>
  107948:	f9400bf3 	ldr	x19, [sp, #16]
  10794c:	a8c27bfd 	ldp	x29, x30, [sp], #32
  107950:	d65f03c0 	ret

0000000000107954 <sunxi_system_reset>:
  107954:	a9bf7bfd 	stp	x29, x30, [sp, #-16]!
  107958:	910003fd 	mov	x29, sp
  10795c:	97fff578 	bl	104f3c <gicv2_cpuif_disable>
  107960:	f0fff8c0 	adrp	x0, 22000 <percpu_data>
  107964:	39757000 	ldrb	w0, [x0, #3420]
  107968:	34000140 	cbz	w0, 107990 <sunxi_system_reset+0x3c>
  10796c:	52800020 	mov	w0, #0x1                   	// #1
  107970:	97fff480 	bl	104b70 <scpi_sys_power_state>
  107974:	2a0003e2 	mov	w2, w0
  107978:	340000c0 	cbz	w0, 107990 <sunxi_system_reset+0x3c>
  10797c:	b0000021 	adrp	x1, 10c000 <__TEXT_END__>
  107980:	b0000020 	adrp	x0, 10c000 <__TEXT_END__>
  107984:	91225821 	add	x1, x1, #0x896
  107988:	91227400 	add	x0, x0, #0x89d
  10798c:	940001c5 	bl	1080a0 <tf_log>
  107990:	d2808281 	mov	x1, #0x414                 	// #1044
  107994:	52800020 	mov	w0, #0x1                   	// #1
  107998:	f2a0e041 	movk	x1, #0x702, lsl #16
  10799c:	b9000020 	str	w0, [x1]
  1079a0:	b9000420 	str	w0, [x1, #4]
  1079a4:	52807d00 	mov	w0, #0x3e8                 	// #1000
  1079a8:	97fff5ba 	bl	105090 <mdelay>
  1079ac:	b0000020 	adrp	x0, 10c000 <__TEXT_END__>
  1079b0:	9122e000 	add	x0, x0, #0x8b8
  1079b4:	940001bb 	bl	1080a0 <tf_log>
  1079b8:	d503207f 	wfi
  1079bc:	94000220 	bl	10823c <console_flush>
  1079c0:	9400068d 	bl	1093f4 <do_panic>

00000000001079c4 <sunxi_system_off>:
  1079c4:	a9bf7bfd 	stp	x29, x30, [sp, #-16]!
  1079c8:	910003fd 	mov	x29, sp
  1079cc:	97fff55c 	bl	104f3c <gicv2_cpuif_disable>
  1079d0:	f0fff8c0 	adrp	x0, 22000 <percpu_data>
  1079d4:	39757000 	ldrb	w0, [x0, #3420]
  1079d8:	34000140 	cbz	w0, 107a00 <sunxi_system_off+0x3c>
  1079dc:	52800000 	mov	w0, #0x0                   	// #0
  1079e0:	97fff464 	bl	104b70 <scpi_sys_power_state>
  1079e4:	2a0003e2 	mov	w2, w0
  1079e8:	340000c0 	cbz	w0, 107a00 <sunxi_system_off+0x3c>
  1079ec:	b0000021 	adrp	x1, 10c000 <__TEXT_END__>
  1079f0:	b0000020 	adrp	x0, 10c000 <__TEXT_END__>
  1079f4:	91235021 	add	x1, x1, #0x8d4
  1079f8:	91227400 	add	x0, x0, #0x89d
  1079fc:	940001a9 	bl	1080a0 <tf_log>
  107a00:	d53800a0 	mrs	x0, mpidr_el1
  107a04:	97ffff4e 	bl	10773c <sunxi_disable_secondary_cpus>
  107a08:	94000111 	bl	107e4c <sunxi_power_down>
  107a0c:	52807d00 	mov	w0, #0x3e8                 	// #1000
  107a10:	97fff586 	bl	105028 <udelay>
  107a14:	b0000020 	adrp	x0, 10c000 <__TEXT_END__>
  107a18:	91237400 	add	x0, x0, #0x8dd
  107a1c:	940001a1 	bl	1080a0 <tf_log>
  107a20:	d503207f 	wfi
  107a24:	94000206 	bl	10823c <console_flush>
  107a28:	94000673 	bl	1093f4 <do_panic>

0000000000107a2c <sunxi_pwr_domain_on>:
  107a2c:	a9be7bfd 	stp	x29, x30, [sp, #-32]!
  107a30:	910003fd 	mov	x29, sp
  107a34:	f9000bf3 	str	x19, [sp, #16]
  107a38:	aa0003f3 	mov	x19, x0
  107a3c:	940000a3 	bl	107cc8 <plat_core_pos_by_mpidr>
  107a40:	37f80200 	tbnz	w0, #31, 107a80 <sunxi_pwr_domain_on+0x54>
  107a44:	f0fff8c0 	adrp	x0, 22000 <percpu_data>
  107a48:	39757000 	ldrb	w0, [x0, #3420]
  107a4c:	34000140 	cbz	w0, 107a74 <sunxi_pwr_domain_on+0x48>
  107a50:	2a1303e0 	mov	w0, w19
  107a54:	52800003 	mov	w3, #0x0                   	// #0
  107a58:	52800002 	mov	w2, #0x0                   	// #0
  107a5c:	52800001 	mov	w1, #0x0                   	// #0
  107a60:	97fff3eb 	bl	104a0c <scpi_set_css_power_state>
  107a64:	52800000 	mov	w0, #0x0                   	// #0
  107a68:	f9400bf3 	ldr	x19, [sp, #16]
  107a6c:	a8c27bfd 	ldp	x29, x30, [sp], #32
  107a70:	d65f03c0 	ret
  107a74:	aa1303e0 	mov	x0, x19
  107a78:	97fffef4 	bl	107648 <sunxi_cpu_on>
  107a7c:	17fffffa 	b	107a64 <sunxi_pwr_domain_on+0x38>
  107a80:	128000a0 	mov	w0, #0xfffffffa            	// #-6
  107a84:	17fffff9 	b	107a68 <sunxi_pwr_domain_on+0x3c>

0000000000107a88 <sunxi_pwr_domain_off>:
  107a88:	a9bd7bfd 	stp	x29, x30, [sp, #-48]!
  107a8c:	910003fd 	mov	x29, sp
  107a90:	a90153f3 	stp	x19, x20, [sp, #16]
  107a94:	f90013f5 	str	x21, [sp, #32]
  107a98:	39400013 	ldrb	w19, [x0]
  107a9c:	39400415 	ldrb	w21, [x0, #1]
  107aa0:	39400814 	ldrb	w20, [x0, #2]
  107aa4:	71000a7f 	cmp	w19, #0x2
  107aa8:	54000041 	b.ne	107ab0 <sunxi_pwr_domain_off+0x28>  // b.any
  107aac:	97fff524 	bl	104f3c <gicv2_cpuif_disable>
  107ab0:	f0fff8c0 	adrp	x0, 22000 <percpu_data>
  107ab4:	39757000 	ldrb	w0, [x0, #3420]
  107ab8:	34000300 	cbz	w0, 107b18 <sunxi_pwr_domain_off+0x90>
  107abc:	d53800a0 	mrs	x0, mpidr_el1
  107ac0:	34000213 	cbz	w19, 107b00 <sunxi_pwr_domain_off+0x78>
  107ac4:	7100067f 	cmp	w19, #0x1
  107ac8:	52800061 	mov	w1, #0x3                   	// #3
  107acc:	1a9f1421 	csinc	w1, w1, wzr, ne  // ne = any
  107ad0:	340001d5 	cbz	w21, 107b08 <sunxi_pwr_domain_off+0x80>
  107ad4:	710006bf 	cmp	w21, #0x1
  107ad8:	52800062 	mov	w2, #0x3                   	// #3
  107adc:	1a9f1442 	csinc	w2, w2, wzr, ne  // ne = any
  107ae0:	34000194 	cbz	w20, 107b10 <sunxi_pwr_domain_off+0x88>
  107ae4:	7100069f 	cmp	w20, #0x1
  107ae8:	52800063 	mov	w3, #0x3                   	// #3
  107aec:	1a9f1463 	csinc	w3, w3, wzr, ne  // ne = any
  107af0:	a94153f3 	ldp	x19, x20, [sp, #16]
  107af4:	f94013f5 	ldr	x21, [sp, #32]
  107af8:	a8c37bfd 	ldp	x29, x30, [sp], #48
  107afc:	17fff3c4 	b	104a0c <scpi_set_css_power_state>
  107b00:	52800001 	mov	w1, #0x0                   	// #0
  107b04:	17fffff3 	b	107ad0 <sunxi_pwr_domain_off+0x48>
  107b08:	52800002 	mov	w2, #0x0                   	// #0
  107b0c:	17fffff5 	b	107ae0 <sunxi_pwr_domain_off+0x58>
  107b10:	52800003 	mov	w3, #0x0                   	// #0
  107b14:	17fffff7 	b	107af0 <sunxi_pwr_domain_off+0x68>
  107b18:	a94153f3 	ldp	x19, x20, [sp, #16]
  107b1c:	f94013f5 	ldr	x21, [sp, #32]
  107b20:	a8c37bfd 	ldp	x29, x30, [sp], #48
  107b24:	d65f03c0 	ret

0000000000107b28 <plat_setup_psci_ops>:
  107b28:	a9bd7bfd 	stp	x29, x30, [sp, #-48]!
  107b2c:	d2800882 	mov	x2, #0x44                  	// #68
  107b30:	f2a12022 	movk	x2, #0x901, lsl #16
  107b34:	910003fd 	mov	x29, sp
  107b38:	a90153f3 	stp	x19, x20, [sp, #16]
  107b3c:	aa0103f4 	mov	x20, x1
  107b40:	d2800801 	mov	x1, #0x40                  	// #64
  107b44:	f2a12021 	movk	x1, #0x901, lsl #16
  107b48:	a9025bf5 	stp	x21, x22, [sp, #32]
  107b4c:	b9000020 	str	w0, [x1]
  107b50:	d360fc01 	lsr	x1, x0, #32
  107b54:	b9000041 	str	w1, [x2]
  107b58:	b9000440 	str	w0, [x2, #4]
  107b5c:	b9000841 	str	w1, [x2, #8]
  107b60:	b9000c40 	str	w0, [x2, #12]
  107b64:	b9001041 	str	w1, [x2, #16]
  107b68:	b9001440 	str	w0, [x2, #20]
  107b6c:	d2800b80 	mov	x0, #0x5c                  	// #92
  107b70:	f2a12020 	movk	x0, #0x901, lsl #16
  107b74:	b9000001 	str	w1, [x0]
  107b78:	d2880000 	mov	x0, #0x4000                	// #16384
  107b7c:	f2a00220 	movk	x0, #0x11, lsl #16
  107b80:	52800241 	mov	w1, #0x12                  	// #18
  107b84:	72b68801 	movk	w1, #0xb440, lsl #16
  107b88:	b9400002 	ldr	w2, [x0]
  107b8c:	6b01005f 	cmp	w2, w1
  107b90:	540006a1 	b.ne	107c64 <plat_setup_psci_ops+0x13c>  // b.any
  107b94:	d2802013 	mov	x19, #0x100                 	// #256
  107b98:	d281e016 	mov	x22, #0xf00                 	// #3840
  107b9c:	2a0003f5 	mov	w21, w0
  107ba0:	f2a00213 	movk	x19, #0x10, lsl #16
  107ba4:	f2a00216 	movk	x22, #0x10, lsl #16
  107ba8:	4b1302a0 	sub	w0, w21, w19
  107bac:	d2800081 	mov	x1, #0x4                   	// #4
  107bb0:	53027c00 	lsr	w0, w0, #2
  107bb4:	b9000260 	str	w0, [x19]
  107bb8:	aa1303e0 	mov	x0, x19
  107bbc:	91040273 	add	x19, x19, #0x100
  107bc0:	94000626 	bl	109458 <clean_dcache_range>
  107bc4:	eb16027f 	cmp	x19, x22
  107bc8:	54ffff01 	b.ne	107ba8 <plat_setup_psci_ops+0x80>  // b.any
  107bcc:	d2808001 	mov	x1, #0x400                 	// #1024
  107bd0:	f2a0e001 	movk	x1, #0x700, lsl #16
  107bd4:	b9400020 	ldr	w0, [x1]
  107bd8:	32000000 	orr	w0, w0, #0x1
  107bdc:	b9000020 	str	w0, [x1]
  107be0:	97fff359 	bl	104944 <scpi_wait_ready>
  107be4:	35000400 	cbnz	w0, 107c64 <plat_setup_psci_ops+0x13c>
  107be8:	f0fff8c0 	adrp	x0, 22000 <percpu_data>
  107bec:	52800021 	mov	w1, #0x1                   	// #1
  107bf0:	39357001 	strb	w1, [x0, #3420]
  107bf4:	b0000020 	adrp	x0, 10c000 <__TEXT_END__>
  107bf8:	91241401 	add	x1, x0, #0x905
  107bfc:	b0000020 	adrp	x0, 10c000 <__TEXT_END__>
  107c00:	91249000 	add	x0, x0, #0x924
  107c04:	94000127 	bl	1080a0 <tf_log>
  107c08:	f0fff8c0 	adrp	x0, 22000 <percpu_data>
  107c0c:	39757001 	ldrb	w1, [x0, #3420]
  107c10:	d0000020 	adrp	x0, 10d000 <sunxi_psci_ops>
  107c14:	91000000 	add	x0, x0, #0x0
  107c18:	34000381 	cbz	w1, 107c88 <plat_setup_psci_ops+0x160>
  107c1c:	90000001 	adrp	x1, 107000 <psci_cpu_suspend_start+0xc>
  107c20:	912a2021 	add	x1, x1, #0xa88
  107c24:	f9001001 	str	x1, [x0, #32]
  107c28:	90000001 	adrp	x1, 107000 <psci_cpu_suspend_start+0xc>
  107c2c:	91243021 	add	x1, x1, #0x90c
  107c30:	f9001c01 	str	x1, [x0, #56]
  107c34:	90000001 	adrp	x1, 107000 <psci_cpu_suspend_start+0xc>
  107c38:	91218021 	add	x1, x1, #0x860
  107c3c:	f9003401 	str	x1, [x0, #104]
  107c40:	90000001 	adrp	x1, 107000 <psci_cpu_suspend_start+0xc>
  107c44:	91223021 	add	x1, x1, #0x88c
  107c48:	f9004001 	str	x1, [x0, #128]
  107c4c:	a9425bf5 	ldp	x21, x22, [sp, #32]
  107c50:	f9000280 	str	x0, [x20]
  107c54:	52800000 	mov	w0, #0x0                   	// #0
  107c58:	a94153f3 	ldp	x19, x20, [sp, #16]
  107c5c:	a8c37bfd 	ldp	x29, x30, [sp], #48
  107c60:	d65f03c0 	ret
  107c64:	f0fff8c0 	adrp	x0, 22000 <percpu_data>
  107c68:	b0000021 	adrp	x1, 10c000 <__TEXT_END__>
  107c6c:	91246021 	add	x1, x1, #0x918
  107c70:	39757002 	ldrb	w2, [x0, #3420]
  107c74:	b0000020 	adrp	x0, 10c000 <__TEXT_END__>
  107c78:	91241400 	add	x0, x0, #0x905
  107c7c:	7100005f 	cmp	w2, #0x0
  107c80:	9a811001 	csel	x1, x0, x1, ne  // ne = any
  107c84:	17ffffde 	b	107bfc <plat_setup_psci_ops+0xd4>
  107c88:	90000001 	adrp	x1, 107000 <psci_cpu_suspend_start+0xc>
  107c8c:	9121d021 	add	x1, x1, #0x874
  107c90:	f9002001 	str	x1, [x0, #64]
  107c94:	17ffffee 	b	107c4c <plat_setup_psci_ops+0x124>

0000000000107c98 <sunxi_security_setup>:
  107c98:	d283e001 	mov	x1, #0x1f00                	// #7936
  107c9c:	528000e0 	mov	w0, #0x7                   	// #7
  107ca0:	f2a06001 	movk	x1, #0x300, lsl #16
  107ca4:	b9000020 	str	w0, [x1]
  107ca8:	d2803a01 	mov	x1, #0x1d0                 	// #464
  107cac:	f2a0e021 	movk	x1, #0x701, lsl #16
  107cb0:	b9000020 	str	w0, [x1]
  107cb4:	d2840400 	mov	x0, #0x2020                	// #8224
  107cb8:	f2a06000 	movk	x0, #0x300, lsl #16
  107cbc:	529fffe1 	mov	w1, #0xffff                	// #65535
  107cc0:	b9000001 	str	w1, [x0]
  107cc4:	d65f03c0 	ret

0000000000107cc8 <plat_core_pos_by_mpidr>:
  107cc8:	d350fc01 	lsr	x1, x0, #16
  107ccc:	53083c03 	ubfx	w3, w0, #8, #8
  107cd0:	aa408021 	orr	x1, x1, x0, lsr #32
  107cd4:	12001c02 	and	w2, w0, #0xff
  107cd8:	72001c3f 	tst	w1, #0xff
  107cdc:	540000c1 	b.ne	107cf4 <plat_core_pos_by_mpidr+0x2c>  // b.any
  107ce0:	121e1400 	and	w0, w0, #0xfc
  107ce4:	2a030001 	orr	w1, w0, w3
  107ce8:	7100003f 	cmp	w1, #0x0
  107cec:	5a9f0040 	csinv	w0, w2, wzr, eq  // eq = none
  107cf0:	d65f03c0 	ret
  107cf4:	12800000 	mov	w0, #0xffffffff            	// #-1
  107cf8:	17fffffe 	b	107cf0 <plat_core_pos_by_mpidr+0x28>

0000000000107cfc <plat_get_power_domain_tree_desc>:
  107cfc:	b0000020 	adrp	x0, 10c000 <__TEXT_END__>
  107d00:	91250400 	add	x0, x0, #0x941
  107d04:	d65f03c0 	ret

0000000000107d08 <axp_read>:
  107d08:	a9bc7bfd 	stp	x29, x30, [sp, #-64]!
  107d0c:	52800024 	mov	w4, #0x1                   	// #1
  107d10:	52800002 	mov	w2, #0x0                   	// #0
  107d14:	910003fd 	mov	x29, sp
  107d18:	9100bfe3 	add	x3, sp, #0x2f
  107d1c:	52800001 	mov	w1, #0x0                   	// #0
  107d20:	f9000bf3 	str	x19, [sp, #16]
  107d24:	3900bfe0 	strb	w0, [sp, #47]
  107d28:	528006c0 	mov	w0, #0x36                  	// #54
  107d2c:	97fff698 	bl	10578c <i2c_write>
  107d30:	35000220 	cbnz	w0, 107d74 <axp_read+0x6c>
  107d34:	9100ffe3 	add	x3, sp, #0x3f
  107d38:	52800024 	mov	w4, #0x1                   	// #1
  107d3c:	52800002 	mov	w2, #0x0                   	// #0
  107d40:	52800001 	mov	w1, #0x0                   	// #0
  107d44:	528006c0 	mov	w0, #0x36                  	// #54
  107d48:	97fff60e 	bl	105580 <i2c_read>
  107d4c:	2a0003f3 	mov	w19, w0
  107d50:	34000160 	cbz	w0, 107d7c <axp_read+0x74>
  107d54:	3940bfe1 	ldrb	w1, [sp, #47]
  107d58:	b0000020 	adrp	x0, 10c000 <__TEXT_END__>
  107d5c:	91251000 	add	x0, x0, #0x944
  107d60:	940000d0 	bl	1080a0 <tf_log>
  107d64:	2a1303e0 	mov	w0, w19
  107d68:	f9400bf3 	ldr	x19, [sp, #16]
  107d6c:	a8c47bfd 	ldp	x29, x30, [sp], #64
  107d70:	d65f03c0 	ret
  107d74:	2a0003f3 	mov	w19, w0
  107d78:	17fffff7 	b	107d54 <axp_read+0x4c>
  107d7c:	3940fff3 	ldrb	w19, [sp, #63]
  107d80:	17fffff9 	b	107d64 <axp_read+0x5c>

0000000000107d84 <axp_write>:
  107d84:	a9bd7bfd 	stp	x29, x30, [sp, #-48]!
  107d88:	52800024 	mov	w4, #0x1                   	// #1
  107d8c:	2a0403e2 	mov	w2, w4
  107d90:	910003fd 	mov	x29, sp
  107d94:	a90153f3 	stp	x19, x20, [sp, #16]
  107d98:	12001c14 	and	w20, w0, #0xff
  107d9c:	9100bfe3 	add	x3, sp, #0x2f
  107da0:	528006c0 	mov	w0, #0x36                  	// #54
  107da4:	3900bfe1 	strb	w1, [sp, #47]
  107da8:	2a1403e1 	mov	w1, w20
  107dac:	97fff678 	bl	10578c <i2c_write>
  107db0:	2a0003f3 	mov	w19, w0
  107db4:	340000a0 	cbz	w0, 107dc8 <axp_write+0x44>
  107db8:	b0000020 	adrp	x0, 10c000 <__TEXT_END__>
  107dbc:	2a1403e1 	mov	w1, w20
  107dc0:	9125b400 	add	x0, x0, #0x96d
  107dc4:	940000b7 	bl	1080a0 <tf_log>
  107dc8:	2a1303e0 	mov	w0, w19
  107dcc:	a94153f3 	ldp	x19, x20, [sp, #16]
  107dd0:	a8c37bfd 	ldp	x29, x30, [sp], #48
  107dd4:	d65f03c0 	ret

0000000000107dd8 <sunxi_pmic_setup>:
  107dd8:	a9be7bfd 	stp	x29, x30, [sp, #-32]!
  107ddc:	5282e500 	mov	w0, #0x1728                	// #5928
  107de0:	910003fd 	mov	x29, sp
  107de4:	a90153f3 	stp	x19, x20, [sp, #16]
  107de8:	aa0103f4 	mov	x20, x1
  107dec:	52800001 	mov	w1, #0x0                   	// #0
  107df0:	94000380 	bl	108bf0 <sunxi_init_platform_r_twi>
  107df4:	2a0003f3 	mov	w19, w0
  107df8:	35000220 	cbnz	w0, 107e3c <sunxi_pmic_setup+0x64>
  107dfc:	d2828000 	mov	x0, #0x1400                	// #5120
  107e00:	f2a0e100 	movk	x0, #0x708, lsl #16
  107e04:	97fff5a6 	bl	10549c <i2c_init>
  107e08:	52800001 	mov	w1, #0x0                   	// #0
  107e0c:	12800000 	mov	w0, #0xffffffff            	// #-1
  107e10:	97ffffdd 	bl	107d84 <axp_write>
  107e14:	2a0003f3 	mov	w19, w0
  107e18:	35000120 	cbnz	w0, 107e3c <sunxi_pmic_setup+0x64>
  107e1c:	97fff1a1 	bl	1044a0 <axp_check_id>
  107e20:	2a0003f3 	mov	w19, w0
  107e24:	350000c0 	cbnz	w0, 107e3c <sunxi_pmic_setup+0x64>
  107e28:	f0fff8c0 	adrp	x0, 22000 <percpu_data>
  107e2c:	52800021 	mov	w1, #0x1                   	// #1
  107e30:	b90cd001 	str	w1, [x0, #3280]
  107e34:	aa1403e0 	mov	x0, x20
  107e38:	97fff1ca 	bl	104560 <axp_setup_regulators>
  107e3c:	2a1303e0 	mov	w0, w19
  107e40:	a94153f3 	ldp	x19, x20, [sp, #16]
  107e44:	a8c27bfd 	ldp	x29, x30, [sp], #32
  107e48:	d65f03c0 	ret

0000000000107e4c <sunxi_power_down>:
  107e4c:	f0fff8c0 	adrp	x0, 22000 <percpu_data>
  107e50:	b94cd000 	ldr	w0, [x0, #3280]
  107e54:	7100041f 	cmp	w0, #0x1
  107e58:	54000161 	b.ne	107e84 <sunxi_power_down+0x38>  // b.any
  107e5c:	a9bf7bfd 	stp	x29, x30, [sp, #-16]!
  107e60:	52800001 	mov	w1, #0x0                   	// #0
  107e64:	5282e500 	mov	w0, #0x1728                	// #5928
  107e68:	910003fd 	mov	x29, sp
  107e6c:	94000361 	bl	108bf0 <sunxi_init_platform_r_twi>
  107e70:	d2828000 	mov	x0, #0x1400                	// #5120
  107e74:	f2a0e100 	movk	x0, #0x708, lsl #16
  107e78:	97fff589 	bl	10549c <i2c_init>
  107e7c:	a8c17bfd 	ldp	x29, x30, [sp], #16
  107e80:	17fff1b4 	b	104550 <axp_power_off>
  107e84:	d65f03c0 	ret

0000000000107e88 <plat_ic_get_pending_interrupt_type>:
  107e88:	a9bf7bfd 	stp	x29, x30, [sp, #-16]!
  107e8c:	910003fd 	mov	x29, sp
  107e90:	97fff460 	bl	105010 <gicv2_get_pending_interrupt_type>
  107e94:	710ff41f 	cmp	w0, #0x3fd
  107e98:	540000c9 	b.ls	107eb0 <plat_ic_get_pending_interrupt_type+0x28>  // b.plast
  107e9c:	710ffc1f 	cmp	w0, #0x3ff
  107ea0:	1a9f17e0 	cset	w0, eq  // eq = none
  107ea4:	11000800 	add	w0, w0, #0x2
  107ea8:	a8c17bfd 	ldp	x29, x30, [sp], #16
  107eac:	d65f03c0 	ret
  107eb0:	52800000 	mov	w0, #0x0                   	// #0
  107eb4:	17fffffd 	b	107ea8 <plat_ic_get_pending_interrupt_type+0x20>

0000000000107eb8 <plat_get_target_pwr_state>:
  107eb8:	d2800003 	mov	x3, #0x0                   	// #0
  107ebc:	52800040 	mov	w0, #0x2                   	// #2
  107ec0:	38636824 	ldrb	w4, [x1, x3]
  107ec4:	91000463 	add	x3, x3, #0x1
  107ec8:	6b00009f 	cmp	w4, w0
  107ecc:	1a809080 	csel	w0, w4, w0, ls  // ls = plast
  107ed0:	12001c00 	and	w0, w0, #0xff
  107ed4:	6b03005f 	cmp	w2, w3
  107ed8:	54ffff41 	b.ne	107ec0 <plat_get_target_pwr_state+0x8>  // b.any
  107edc:	d65f03c0 	ret

0000000000107ee0 <arm_arch_svc_smc_handler>:
  107ee0:	a9be7bfd 	stp	x29, x30, [sp, #-32]!
  107ee4:	320183e3 	mov	w3, #0x80008000            	// #-2147450880
  107ee8:	910003fd 	mov	x29, sp
  107eec:	f9000bf3 	str	x19, [sp, #16]
  107ef0:	aa0603f3 	mov	x19, x6
  107ef4:	6b03001f 	cmp	w0, w3
  107ef8:	54000148 	b.hi	107f20 <arm_arch_svc_smc_handler+0x40>  // b.pmore
  107efc:	32013fe3 	mov	w3, #0x80007fff            	// #-2147450881
  107f00:	6b03001f 	cmp	w0, w3
  107f04:	54000182 	b.cs	107f34 <arm_arch_svc_smc_handler+0x54>  // b.hs, b.nlast
  107f08:	52b00003 	mov	w3, #0x80000000            	// #-2147483648
  107f0c:	6b03001f 	cmp	w0, w3
  107f10:	540000c0 	b.eq	107f28 <arm_arch_svc_smc_handler+0x48>  // b.none
  107f14:	320107e3 	mov	w3, #0x80000001            	// #-2147483647
  107f18:	6b03001f 	cmp	w0, w3
  107f1c:	54000140 	b.eq	107f44 <arm_arch_svc_smc_handler+0x64>  // b.none
  107f20:	92800000 	mov	x0, #0xffffffffffffffff    	// #-1
  107f24:	14000003 	b	107f30 <arm_arch_svc_smc_handler+0x50>
  107f28:	d2800040 	mov	x0, #0x2                   	// #2
  107f2c:	f2a00020 	movk	x0, #0x1, lsl #16
  107f30:	f9000260 	str	x0, [x19]
  107f34:	aa1303e0 	mov	x0, x19
  107f38:	f9400bf3 	ldr	x19, [sp, #16]
  107f3c:	a8c27bfd 	ldp	x29, x30, [sp], #32
  107f40:	d65f03c0 	ret
  107f44:	32013fe0 	mov	w0, #0x80007fff            	// #-2147450881
  107f48:	eb00003f 	cmp	x1, x0
  107f4c:	540003c0 	b.eq	107fc4 <arm_arch_svc_smc_handler+0xe4>  // b.none
  107f50:	540001e8 	b.hi	107f8c <arm_arch_svc_smc_handler+0xac>  // b.pmore
  107f54:	320107e0 	mov	w0, #0x80000001            	// #-2147483647
  107f58:	eb00003f 	cmp	x1, x0
  107f5c:	540000c8 	b.hi	107f74 <arm_arch_svc_smc_handler+0x94>  // b.pmore
  107f60:	b2407be0 	mov	x0, #0x7fffffff            	// #2147483647
  107f64:	eb00003f 	cmp	x1, x0
  107f68:	5a9f83e0 	csetm	w0, ls  // ls = plast
  107f6c:	93407c00 	sxtw	x0, w0
  107f70:	17fffff0 	b	107f30 <arm_arch_svc_smc_handler+0x50>
  107f74:	d2800040 	mov	x0, #0x2                   	// #2
  107f78:	f2b00000 	movk	x0, #0x8000, lsl #16
  107f7c:	eb00003f 	cmp	x1, x0
  107f80:	54000140 	b.eq	107fa8 <arm_arch_svc_smc_handler+0xc8>  // b.none
  107f84:	12800000 	mov	w0, #0xffffffff            	// #-1
  107f88:	17fffff9 	b	107f6c <arm_arch_svc_smc_handler+0x8c>
  107f8c:	320183e0 	mov	w0, #0x80008000            	// #-2147450880
  107f90:	eb00003f 	cmp	x1, x0
  107f94:	54ffff81 	b.ne	107f84 <arm_arch_svc_smc_handler+0xa4>  // b.any
  107f98:	9400045c 	bl	109108 <check_wa_cve_2017_5715>
  107f9c:	7100001f 	cmp	w0, #0x0
  107fa0:	1a9f17e0 	cset	w0, eq  // eq = none
  107fa4:	17fffff2 	b	107f6c <arm_arch_svc_smc_handler+0x8c>
  107fa8:	f100045f 	cmp	x2, #0x1
  107fac:	54000061 	b.ne	107fb8 <arm_arch_svc_smc_handler+0xd8>  // b.any
  107fb0:	940000c1 	bl	1082b4 <plat_get_soc_revision>
  107fb4:	17ffffee 	b	107f6c <arm_arch_svc_smc_handler+0x8c>
  107fb8:	b50000a2 	cbnz	x2, 107fcc <arm_arch_svc_smc_handler+0xec>
  107fbc:	940000bc 	bl	1082ac <plat_get_soc_version>
  107fc0:	17ffffeb 	b	107f6c <arm_arch_svc_smc_handler+0x8c>
  107fc4:	12800020 	mov	w0, #0xfffffffe            	// #-2
  107fc8:	17ffffe9 	b	107f6c <arm_arch_svc_smc_handler+0x8c>
  107fcc:	12800040 	mov	w0, #0xfffffffd            	// #-3
  107fd0:	17ffffe7 	b	107f6c <arm_arch_svc_smc_handler+0x8c>

0000000000107fd4 <std_svc_smc_handler>:
  107fd4:	a9be7bfd 	stp	x29, x30, [sp, #-32]!
  107fd8:	910003fd 	mov	x29, sp
  107fdc:	f9000bf3 	str	x19, [sp, #16]
  107fe0:	aa0603f3 	mov	x19, x6
  107fe4:	721b281f 	tst	w0, #0xffe0
  107fe8:	540000e1 	b.ne	108004 <std_svc_smc_handler+0x30>  // b.any
  107fec:	97fff9e6 	bl	106784 <psci_smc_handler>
  107ff0:	f9000260 	str	x0, [x19]
  107ff4:	aa1303e0 	mov	x0, x19
  107ff8:	f9400bf3 	ldr	x19, [sp, #16]
  107ffc:	a8c27bfd 	ldp	x29, x30, [sp], #32
  108000:	d65f03c0 	ret
  108004:	2a0003e8 	mov	w8, w0
  108008:	529fe020 	mov	w0, #0xff01                	// #65281
  10800c:	72b08000 	movk	w0, #0x8400, lsl #16
  108010:	6b00011f 	cmp	w8, w0
  108014:	54000120 	b.eq	108038 <std_svc_smc_handler+0x64>  // b.none
  108018:	11000800 	add	w0, w0, #0x2
  10801c:	6b00011f 	cmp	w8, w0
  108020:	54000240 	b.eq	108068 <std_svc_smc_handler+0x94>  // b.none
  108024:	51000c00 	sub	w0, w0, #0x3
  108028:	6b00011f 	cmp	w8, w0
  10802c:	d2800240 	mov	x0, #0x12                  	// #18
  108030:	da9f0000 	csinv	x0, x0, xzr, eq  // eq = none
  108034:	17ffffef 	b	107ff0 <std_svc_smc_handler+0x1c>
  108038:	d2882ac0 	mov	x0, #0x4156                	// #16726
  10803c:	f2bc5ec0 	movk	x0, #0xe2f6, lsl #16
  108040:	f9000cc0 	str	x0, [x6, #24]
  108044:	d285b5c0 	mov	x0, #0x2dae                	// #11694
  108048:	f2bf7800 	movk	x0, #0xfbc0, lsl #16
  10804c:	f90008c0 	str	x0, [x6, #16]
  108050:	d29f0c60 	mov	x0, #0xf863                	// #63587
  108054:	f2a8fd00 	movk	x0, #0x47e8, lsl #16
  108058:	f90004c0 	str	x0, [x6, #8]
  10805c:	d2920b60 	mov	x0, #0x905b                	// #36955
  108060:	f2a211a0 	movk	x0, #0x108d, lsl #16
  108064:	17ffffe3 	b	107ff0 <std_svc_smc_handler+0x1c>
  108068:	d2800020 	mov	x0, #0x1                   	// #1
  10806c:	f90004c0 	str	x0, [x6, #8]
  108070:	d2800000 	mov	x0, #0x0                   	// #0
  108074:	17ffffdf 	b	107ff0 <std_svc_smc_handler+0x1c>

0000000000108078 <std_svc_setup>:
  108078:	a9bf7bfd 	stp	x29, x30, [sp, #-16]!
  10807c:	529ffc00 	mov	w0, #0xffe0                	// #65504
  108080:	910003fd 	mov	x29, sp
  108084:	97fff06d 	bl	104238 <get_arm_std_svc_args>
  108088:	97fffb10 	bl	106cc8 <psci_setup>
  10808c:	7100001f 	cmp	w0, #0x0
  108090:	1a9f07e0 	cset	w0, ne  // ne = any
  108094:	a8c17bfd 	ldp	x29, x30, [sp], #16
  108098:	d65f03c0 	ret

000000000010809c <print_entry_point_info>:
  10809c:	d65f03c0 	ret

00000000001080a0 <tf_log>:
  1080a0:	a9b67bfd 	stp	x29, x30, [sp, #-160]!
  1080a4:	910003fd 	mov	x29, sp
  1080a8:	a90153f3 	stp	x19, x20, [sp, #16]
  1080ac:	aa0003f4 	mov	x20, x0
  1080b0:	a9068be1 	stp	x1, x2, [sp, #104]
  1080b4:	b0000021 	adrp	x1, 10d000 <sunxi_psci_ops>
  1080b8:	a90793e3 	stp	x3, x4, [sp, #120]
  1080bc:	b9417821 	ldr	w1, [x1, #376]
  1080c0:	a9089be5 	stp	x5, x6, [sp, #136]
  1080c4:	f9004fe7 	str	x7, [sp, #152]
  1080c8:	39400000 	ldrb	w0, [x0]
  1080cc:	6b00003f 	cmp	w1, w0
  1080d0:	54000263 	b.cc	10811c <tf_log+0x7c>  // b.lo, b.ul, b.last
  1080d4:	9400007a 	bl	1082bc <plat_log_get_prefix>
  1080d8:	aa0003f3 	mov	x19, x0
  1080dc:	39400260 	ldrb	w0, [x19]
  1080e0:	35000240 	cbnz	w0, 108128 <tf_log+0x88>
  1080e4:	910283e0 	add	x0, sp, #0xa0
  1080e8:	a90403e0 	stp	x0, x0, [sp, #64]
  1080ec:	910183e0 	add	x0, sp, #0x60
  1080f0:	f9002be0 	str	x0, [sp, #80]
  1080f4:	128006e0 	mov	w0, #0xffffffc8            	// #-56
  1080f8:	b9005be0 	str	w0, [sp, #88]
  1080fc:	b9005fff 	str	wzr, [sp, #92]
  108100:	a94407e0 	ldp	x0, x1, [sp, #64]
  108104:	a90207e0 	stp	x0, x1, [sp, #32]
  108108:	a94507e0 	ldp	x0, x1, [sp, #80]
  10810c:	a90307e0 	stp	x0, x1, [sp, #48]
  108110:	910083e1 	add	x1, sp, #0x20
  108114:	91000680 	add	x0, x20, #0x1
  108118:	940008cb 	bl	10a444 <vprintf>
  10811c:	a94153f3 	ldp	x19, x20, [sp, #16]
  108120:	a8ca7bfd 	ldp	x29, x30, [sp], #160
  108124:	d65f03c0 	ret
  108128:	91000673 	add	x19, x19, #0x1
  10812c:	940009c2 	bl	10a834 <putchar>
  108130:	17ffffeb 	b	1080dc <tf_log+0x3c>

0000000000108134 <console_is_registered>:
  108134:	d0fff8c1 	adrp	x1, 22000 <percpu_data>
  108138:	f945a021 	ldr	x1, [x1, #2880]
  10813c:	b5000061 	cbnz	x1, 108148 <console_is_registered+0x14>
  108140:	52800000 	mov	w0, #0x0                   	// #0
  108144:	d65f03c0 	ret
  108148:	eb00003f 	cmp	x1, x0
  10814c:	54000060 	b.eq	108158 <console_is_registered+0x24>  // b.none
  108150:	f9400021 	ldr	x1, [x1]
  108154:	17fffffa 	b	10813c <console_is_registered+0x8>
  108158:	52800020 	mov	w0, #0x1                   	// #1
  10815c:	17fffffa 	b	108144 <console_is_registered+0x10>

0000000000108160 <console_register>:
  108160:	a9bf7bfd 	stp	x29, x30, [sp, #-16]!
  108164:	aa0003e2 	mov	x2, x0
  108168:	910003fd 	mov	x29, sp
  10816c:	97fffff2 	bl	108134 <console_is_registered>
  108170:	7100041f 	cmp	w0, #0x1
  108174:	540000a0 	b.eq	108188 <console_register+0x28>  // b.none
  108178:	d0fff8c0 	adrp	x0, 22000 <percpu_data>
  10817c:	f945a001 	ldr	x1, [x0, #2880]
  108180:	f9000041 	str	x1, [x2]
  108184:	f905a002 	str	x2, [x0, #2880]
  108188:	52800020 	mov	w0, #0x1                   	// #1
  10818c:	a8c17bfd 	ldp	x29, x30, [sp], #16
  108190:	d65f03c0 	ret

0000000000108194 <console_switch_state>:
  108194:	b0000021 	adrp	x1, 10d000 <sunxi_psci_ops>
  108198:	3905f020 	strb	w0, [x1, #380]
  10819c:	d65f03c0 	ret

00000000001081a0 <console_putc>:
  1081a0:	a9bd7bfd 	stp	x29, x30, [sp, #-48]!
  1081a4:	910003fd 	mov	x29, sp
  1081a8:	a9025bf5 	stp	x21, x22, [sp, #32]
  1081ac:	2a0003f5 	mov	w21, w0
  1081b0:	d0fff8c0 	adrp	x0, 22000 <percpu_data>
  1081b4:	a90153f3 	stp	x19, x20, [sp, #16]
  1081b8:	b0000036 	adrp	x22, 10d000 <sunxi_psci_ops>
  1081bc:	9105f2d6 	add	x22, x22, #0x17c
  1081c0:	f945a013 	ldr	x19, [x0, #2880]
  1081c4:	12800ff4 	mov	w20, #0xffffff80            	// #-128
  1081c8:	b50000d3 	cbnz	x19, 1081e0 <console_putc+0x40>
  1081cc:	2a1403e0 	mov	w0, w20
  1081d0:	a94153f3 	ldp	x19, x20, [sp, #16]
  1081d4:	a9425bf5 	ldp	x21, x22, [sp, #32]
  1081d8:	a8c37bfd 	ldp	x29, x30, [sp], #48
  1081dc:	d65f03c0 	ret
  1081e0:	f9400660 	ldr	x0, [x19, #8]
  1081e4:	394002c1 	ldrb	w1, [x22]
  1081e8:	ea00003f 	tst	x1, x0
  1081ec:	54000180 	b.eq	10821c <console_putc+0x7c>  // b.none
  1081f0:	f9400a62 	ldr	x2, [x19, #16]
  1081f4:	b4000142 	cbz	x2, 10821c <console_putc+0x7c>
  1081f8:	71002abf 	cmp	w21, #0xa
  1081fc:	54000140 	b.eq	108224 <console_putc+0x84>  // b.none
  108200:	f9400a62 	ldr	x2, [x19, #16]
  108204:	aa1303e1 	mov	x1, x19
  108208:	2a1503e0 	mov	w0, w21
  10820c:	d63f0040 	blr	x2
  108210:	3102029f 	cmn	w20, #0x80
  108214:	7a401280 	ccmp	w20, w0, #0x0, ne  // ne = any
  108218:	1a80d294 	csel	w20, w20, w0, le
  10821c:	f9400273 	ldr	x19, [x19]
  108220:	17ffffea 	b	1081c8 <console_putc+0x28>
  108224:	3647fee0 	tbz	w0, #8, 108200 <console_putc+0x60>
  108228:	aa1303e1 	mov	x1, x19
  10822c:	528001a0 	mov	w0, #0xd                   	// #13
  108230:	d63f0040 	blr	x2
  108234:	36fffe60 	tbz	w0, #31, 108200 <console_putc+0x60>
  108238:	17fffff6 	b	108210 <console_putc+0x70>

000000000010823c <console_flush>:
  10823c:	a9bd7bfd 	stp	x29, x30, [sp, #-48]!
  108240:	d0fff8c0 	adrp	x0, 22000 <percpu_data>
  108244:	910003fd 	mov	x29, sp
  108248:	a90153f3 	stp	x19, x20, [sp, #16]
  10824c:	12800ff4 	mov	w20, #0xffffff80            	// #-128
  108250:	f945a013 	ldr	x19, [x0, #2880]
  108254:	f90013f5 	str	x21, [sp, #32]
  108258:	b0000035 	adrp	x21, 10d000 <sunxi_psci_ops>
  10825c:	9105f2b5 	add	x21, x21, #0x17c
  108260:	b50000d3 	cbnz	x19, 108278 <console_flush+0x3c>
  108264:	2a1403e0 	mov	w0, w20
  108268:	a94153f3 	ldp	x19, x20, [sp, #16]
  10826c:	f94013f5 	ldr	x21, [sp, #32]
  108270:	a8c37bfd 	ldp	x29, x30, [sp], #48
  108274:	d65f03c0 	ret
  108278:	f9400660 	ldr	x0, [x19, #8]
  10827c:	394002a1 	ldrb	w1, [x21]
  108280:	ea00003f 	tst	x1, x0
  108284:	54000100 	b.eq	1082a4 <console_flush+0x68>  // b.none
  108288:	f9401261 	ldr	x1, [x19, #32]
  10828c:	b40000c1 	cbz	x1, 1082a4 <console_flush+0x68>
  108290:	aa1303e0 	mov	x0, x19
  108294:	d63f0020 	blr	x1
  108298:	3102029f 	cmn	w20, #0x80
  10829c:	7a401280 	ccmp	w20, w0, #0x0, ne  // ne = any
  1082a0:	1a80d294 	csel	w20, w20, w0, le
  1082a4:	f9400273 	ldr	x19, [x19]
  1082a8:	17ffffee 	b	108260 <console_flush+0x24>

00000000001082ac <plat_get_soc_version>:
  1082ac:	12800000 	mov	w0, #0xffffffff            	// #-1
  1082b0:	d65f03c0 	ret

00000000001082b4 <plat_get_soc_revision>:
  1082b4:	12800000 	mov	w0, #0xffffffff            	// #-1
  1082b8:	d65f03c0 	ret

00000000001082bc <plat_log_get_prefix>:
  1082bc:	7100c81f 	cmp	w0, #0x32
  1082c0:	52800641 	mov	w1, #0x32                  	// #50
  1082c4:	1a819000 	csel	w0, w0, w1, ls  // ls = plast
  1082c8:	52800141 	mov	w1, #0xa                   	// #10
  1082cc:	6b01001f 	cmp	w0, w1
  1082d0:	1a812000 	csel	w0, w0, w1, cs  // cs = hs, nlast
  1082d4:	1ac10800 	udiv	w0, w0, w1
  1082d8:	90000021 	adrp	x1, 10c000 <__TEXT_END__>
  1082dc:	91072021 	add	x1, x1, #0x1c8
  1082e0:	51000400 	sub	w0, w0, #0x1
  1082e4:	f8607820 	ldr	x0, [x1, x0, lsl #3]
  1082e8:	d65f03c0 	ret

00000000001082ec <bl31_plat_runtime_setup>:
  1082ec:	52800040 	mov	w0, #0x2                   	// #2
  1082f0:	17ffffa9 	b	108194 <console_switch_state>

00000000001082f4 <plat_ea_handler>:
  1082f4:	a9be7bfd 	stp	x29, x30, [sp, #-32]!
  1082f8:	910003fd 	mov	x29, sp
  1082fc:	a90153f3 	stp	x19, x20, [sp, #16]
  108300:	2a0003f3 	mov	w19, w0
  108304:	aa0103f4 	mov	x20, x1
  108308:	d53e4003 	mrs	x3, spsr_el3
  10830c:	53020c63 	ubfx	w3, w3, #2, #2
  108310:	d53800a1 	mrs	x1, mpidr_el1
  108314:	71000c7f 	cmp	w3, #0x3
  108318:	54000220 	b.eq	10835c <plat_ea_handler+0x68>  // b.none
  10831c:	7100087f 	cmp	w3, #0x2
  108320:	90000020 	adrp	x0, 10c000 <__TEXT_END__>
  108324:	90000022 	adrp	x2, 10c000 <__TEXT_END__>
  108328:	9127a000 	add	x0, x0, #0x9e8
  10832c:	91278842 	add	x2, x2, #0x9e2
  108330:	9a801042 	csel	x2, x2, x0, ne  // ne = any
  108334:	90000020 	adrp	x0, 10c000 <__TEXT_END__>
  108338:	9127b000 	add	x0, x0, #0x9ec
  10833c:	97ffff59 	bl	1080a0 <tf_log>
  108340:	aa1403e2 	mov	x2, x20
  108344:	2a1303e1 	mov	w1, w19
  108348:	90000020 	adrp	x0, 10c000 <__TEXT_END__>
  10834c:	91288400 	add	x0, x0, #0xa21
  108350:	97ffff54 	bl	1080a0 <tf_log>
  108354:	97ffffba 	bl	10823c <console_flush>
  108358:	94000427 	bl	1093f4 <do_panic>
  10835c:	90000022 	adrp	x2, 10c000 <__TEXT_END__>
  108360:	91277842 	add	x2, x2, #0x9de
  108364:	17fffff4 	b	108334 <plat_ea_handler+0x40>

0000000000108368 <tcr_physical_addr_size_bits>:
  108368:	f2540c1f 	tst	x0, #0xf00000000000
  10836c:	54000141 	b.ne	108394 <tcr_physical_addr_size_bits+0x2c>  // b.any
  108370:	f256041f 	tst	x0, #0xc0000000000
  108374:	54000141 	b.ne	10839c <tcr_physical_addr_size_bits+0x34>  // b.any
  108378:	f258041f 	tst	x0, #0x30000000000
  10837c:	54000141 	b.ne	1083a4 <tcr_physical_addr_size_bits+0x3c>  // b.any
  108380:	f25c0c1f 	tst	x0, #0xf000000000
  108384:	54000141 	b.ne	1083ac <tcr_physical_addr_size_bits+0x44>  // b.any
  108388:	f2600c1f 	tst	x0, #0xf00000000
  10838c:	9a9f07e0 	cset	x0, ne  // ne = any
  108390:	d65f03c0 	ret
  108394:	d28000a0 	mov	x0, #0x5                   	// #5
  108398:	17fffffe 	b	108390 <tcr_physical_addr_size_bits+0x28>
  10839c:	d2800080 	mov	x0, #0x4                   	// #4
  1083a0:	17fffffc 	b	108390 <tcr_physical_addr_size_bits+0x28>
  1083a4:	d2800060 	mov	x0, #0x3                   	// #3
  1083a8:	17fffffa 	b	108390 <tcr_physical_addr_size_bits+0x28>
  1083ac:	d2800040 	mov	x0, #0x2                   	// #2
  1083b0:	17fffff8 	b	108390 <tcr_physical_addr_size_bits+0x28>

00000000001083b4 <xlat_arch_regime_get_xn_desc>:
  1083b4:	7100041f 	cmp	w0, #0x1
  1083b8:	d2e00c01 	mov	x1, #0x60000000000000      	// #27021597764222976
  1083bc:	d2e00800 	mov	x0, #0x40000000000000      	// #18014398509481984
  1083c0:	9a800020 	csel	x0, x1, x0, eq  // eq = none
  1083c4:	d65f03c0 	ret

00000000001083c8 <xlat_arch_current_el>:
  1083c8:	d5384240 	mrs	x0, currentel
  1083cc:	53020c00 	ubfx	w0, w0, #2, #2
  1083d0:	d65f03c0 	ret

00000000001083d4 <setup_mmu_cfg>:
  1083d4:	91000484 	add	x4, x4, #0x1
  1083d8:	a9bf7bfd 	stp	x29, x30, [sp, #-16]!
  1083dc:	dac00087 	rbit	x7, x4
  1083e0:	910003fd 	mov	x29, sp
  1083e4:	dac010e7 	clz	x7, x7
  1083e8:	aa0003e6 	mov	x6, x0
  1083ec:	52800804 	mov	w4, #0x40                  	// #64
  1083f0:	aa0303e0 	mov	x0, x3
  1083f4:	4b070084 	sub	w4, w4, w7
  1083f8:	37080061 	tbnz	w1, #1, 108404 <setup_mmu_cfg+0x30>
  1083fc:	5286a001 	mov	w1, #0x3500                	// #13568
  108400:	2a010084 	orr	w4, w4, w1
  108404:	93407c84 	sxtw	x4, w4
  108408:	97ffffd8 	bl	108368 <tcr_physical_addr_size_bits>
  10840c:	aa008083 	orr	x3, x4, x0, lsl #32
  108410:	aa004081 	orr	x1, x4, x0, lsl #16
  108414:	b2690063 	orr	x3, x3, #0x800000
  108418:	710004bf 	cmp	w5, #0x1
  10841c:	d2b01000 	mov	x0, #0x80800000            	// #2155872256
  108420:	aa000021 	orr	x1, x1, x0
  108424:	9a831021 	csel	x1, x1, x3, ne  // ne = any
  108428:	d5380740 	mrs	x0, id_aa64mmfr2_el1
  10842c:	f2400c1f 	tst	x0, #0xf
  108430:	54000040 	b.eq	108438 <setup_mmu_cfg+0x64>  // b.none
  108434:	b2400042 	orr	x2, x2, #0x1
  108438:	d2809fe0 	mov	x0, #0x4ff                 	// #1279
  10843c:	a8c17bfd 	ldp	x29, x30, [sp], #16
  108440:	f2a00880 	movk	x0, #0x44, lsl #16
  108444:	a90004c0 	stp	x0, x1, [x6]
  108448:	f90008c2 	str	x2, [x6, #16]
  10844c:	d65f03c0 	ret

0000000000108450 <mmap_add_region>:
  108450:	a9bc7bfd 	stp	x29, x30, [sp, #-64]!
  108454:	910003fd 	mov	x29, sp
  108458:	a90187e0 	stp	x0, x1, [sp, #24]
  10845c:	d2a80000 	mov	x0, #0x40000000            	// #1073741824
  108460:	910063e1 	add	x1, sp, #0x18
  108464:	f90017e2 	str	x2, [sp, #40]
  108468:	b90033e3 	str	w3, [sp, #48]
  10846c:	f9001fe0 	str	x0, [sp, #56]
  108470:	b0000020 	adrp	x0, 10d000 <sunxi_psci_ops>
  108474:	9102a000 	add	x0, x0, #0xa8
  108478:	940000d7 	bl	1087d4 <mmap_add_region_ctx>
  10847c:	a8c47bfd 	ldp	x29, x30, [sp], #64
  108480:	d65f03c0 	ret

0000000000108484 <mmap_add>:
  108484:	aa0003e1 	mov	x1, x0
  108488:	b0000020 	adrp	x0, 10d000 <sunxi_psci_ops>
  10848c:	9102a000 	add	x0, x0, #0xa8
  108490:	1400015e 	b	108a08 <mmap_add_ctx>

0000000000108494 <init_xlat_tables>:
  108494:	a9bf7bfd 	stp	x29, x30, [sp, #-16]!
  108498:	910003fd 	mov	x29, sp
  10849c:	97ffffcb 	bl	1083c8 <xlat_arch_current_el>
  1084a0:	7100041f 	cmp	w0, #0x1
  1084a4:	54000120 	b.eq	1084c8 <init_xlat_tables+0x34>  // b.none
  1084a8:	7100081f 	cmp	w0, #0x2
  1084ac:	1a9f07e0 	cset	w0, ne  // ne = any
  1084b0:	11000801 	add	w1, w0, #0x2
  1084b4:	b0000020 	adrp	x0, 10d000 <sunxi_psci_ops>
  1084b8:	9102a000 	add	x0, x0, #0xa8
  1084bc:	b9005801 	str	w1, [x0, #88]
  1084c0:	a8c17bfd 	ldp	x29, x30, [sp], #16
  1084c4:	14000160 	b	108a44 <init_xlat_tables_ctx>
  1084c8:	2a0003e1 	mov	w1, w0
  1084cc:	17fffffa 	b	1084b4 <init_xlat_tables+0x20>

00000000001084d0 <enable_mmu_el3>:
  1084d0:	b0000022 	adrp	x2, 10d000 <sunxi_psci_ops>
  1084d4:	9102a042 	add	x2, x2, #0xa8
  1084d8:	a9be7bfd 	stp	x29, x30, [sp, #-32]!
  1084dc:	2a0003e1 	mov	w1, w0
  1084e0:	52800065 	mov	w5, #0x3                   	// #3
  1084e4:	910003fd 	mov	x29, sp
  1084e8:	f9400444 	ldr	x4, [x2, #8]
  1084ec:	f9402043 	ldr	x3, [x2, #64]
  1084f0:	f9401842 	ldr	x2, [x2, #48]
  1084f4:	f9000bf3 	str	x19, [sp, #16]
  1084f8:	2a0003f3 	mov	w19, w0
  1084fc:	d0fff8c0 	adrp	x0, 22000 <percpu_data>
  108500:	912d2000 	add	x0, x0, #0xb48
  108504:	97ffffb4 	bl	1083d4 <setup_mmu_cfg>
  108508:	2a1303e0 	mov	w0, w19
  10850c:	f9400bf3 	ldr	x19, [sp, #16]
  108510:	a8c27bfd 	ldp	x29, x30, [sp], #32
  108514:	140004c1 	b	109818 <enable_mmu_direct_el3>

0000000000108518 <xlat_desc>:
  108518:	a9bd7bfd 	stp	x29, x30, [sp, #-48]!
  10851c:	71000c7f 	cmp	w3, #0x3
  108520:	910003fd 	mov	x29, sp
  108524:	a90153f3 	stp	x19, x20, [sp, #16]
  108528:	2a0103f4 	mov	w20, w1
  10852c:	d27d0293 	eor	x19, x20, #0x8
  108530:	d2800061 	mov	x1, #0x3                   	// #3
  108534:	9a9f0421 	csinc	x1, x1, xzr, eq  // eq = none
  108538:	d3430e73 	ubfx	x19, x19, #3, #1
  10853c:	b9405800 	ldr	w0, [x0, #88]
  108540:	f90013f5 	str	x21, [sp, #32]
  108544:	aa131c33 	orr	x19, x1, x19, lsl #7
  108548:	d37f7e81 	ubfiz	x1, x20, #1, #32
  10854c:	927b0021 	and	x1, x1, #0x20
  108550:	aa020021 	orr	x1, x1, x2
  108554:	aa010273 	orr	x19, x19, x1
  108558:	7100041f 	cmp	w0, #0x1
  10855c:	540001a1 	b.ne	108590 <xlat_desc+0x78>  // b.any
  108560:	b2760261 	orr	x1, x19, #0x400
  108564:	f27a029f 	tst	x20, #0x40
  108568:	d2808802 	mov	x2, #0x440                 	// #1088
  10856c:	aa020273 	orr	x19, x19, x2
  108570:	9a811273 	csel	x19, x19, x1, ne  // ne = any
  108574:	72000a95 	ands	w21, w20, #0x7
  108578:	54000121 	b.ne	10859c <xlat_desc+0x84>  // b.any
  10857c:	97ffff8e 	bl	1083b4 <xlat_arch_regime_get_xn_desc>
  108580:	aa000273 	orr	x19, x19, x0
  108584:	d2804080 	mov	x0, #0x204                 	// #516
  108588:	aa000273 	orr	x19, x19, x0
  10858c:	14000012 	b	1085d4 <xlat_desc+0xbc>
  108590:	d2808801 	mov	x1, #0x440                 	// #1088
  108594:	aa010273 	orr	x19, x19, x1
  108598:	17fffff7 	b	108574 <xlat_desc+0x5c>
  10859c:	52800501 	mov	w1, #0x28                  	// #40
  1085a0:	6a01029f 	tst	w20, w1
  1085a4:	54000060 	b.eq	1085b0 <xlat_desc+0x98>  // b.none
  1085a8:	97ffff83 	bl	1083b4 <xlat_arch_regime_get_xn_desc>
  1085ac:	aa000273 	orr	x19, x19, x0
  1085b0:	71000abf 	cmp	w21, #0x2
  1085b4:	540001a1 	b.ne	1085e8 <xlat_desc+0xd0>  // b.any
  1085b8:	12190694 	and	w20, w20, #0x180
  1085bc:	7106029f 	cmp	w20, #0x180
  1085c0:	540000a0 	b.eq	1085d4 <xlat_desc+0xbc>  // b.none
  1085c4:	b2770260 	orr	x0, x19, #0x200
  1085c8:	7104029f 	cmp	w20, #0x100
  1085cc:	b2780673 	orr	x19, x19, #0x300
  1085d0:	9a801273 	csel	x19, x19, x0, ne  // ne = any
  1085d4:	aa1303e0 	mov	x0, x19
  1085d8:	a94153f3 	ldp	x19, x20, [sp, #16]
  1085dc:	f94013f5 	ldr	x21, [sp, #32]
  1085e0:	a8c37bfd 	ldp	x29, x30, [sp], #48
  1085e4:	d65f03c0 	ret
  1085e8:	d2804100 	mov	x0, #0x208                 	// #520
  1085ec:	17ffffe7 	b	108588 <xlat_desc+0x70>

00000000001085f0 <xlat_tables_map_region>:
  1085f0:	a9b87bfd 	stp	x29, x30, [sp, #-128]!
  1085f4:	910003fd 	mov	x29, sp
  1085f8:	a9046bf9 	stp	x25, x26, [sp, #64]
  1085fc:	aa0103f9 	mov	x25, x1
  108600:	aa0003fa 	mov	x26, x0
  108604:	a90153f3 	stp	x19, x20, [sp, #16]
  108608:	12800113 	mov	w19, #0xfffffff7            	// #-9
  10860c:	2a0503f4 	mov	w20, w5
  108610:	f9400421 	ldr	x1, [x1, #8]
  108614:	1b137cb3 	mul	w19, w5, w19
  108618:	f9400b20 	ldr	x0, [x25, #16]
  10861c:	11009e73 	add	w19, w19, #0x27
  108620:	a9025bf5 	stp	x21, x22, [sp, #32]
  108624:	d2800036 	mov	x22, #0x1                   	// #1
  108628:	8b000020 	add	x0, x1, x0
  10862c:	d1000400 	sub	x0, x0, #0x1
  108630:	9ad322d6 	lsl	x22, x22, x19
  108634:	f90037e0 	str	x0, [sp, #104]
  108638:	cb1603e0 	neg	x0, x22
  10863c:	eb02003f 	cmp	x1, x2
  108640:	8a010000 	and	x0, x0, x1
  108644:	9a828000 	csel	x0, x0, x2, hi  // hi = pmore
  108648:	a90573fb 	stp	x27, x28, [sp, #80]
  10864c:	cb02001c 	sub	x28, x0, x2
  108650:	92800015 	mov	x21, #0xffffffffffffffff    	// #-1
  108654:	110004bb 	add	w27, w5, #0x1
  108658:	9ad3279c 	lsr	x28, x28, x19
  10865c:	a90363f7 	stp	x23, x24, [sp, #48]
  108660:	aa0003f7 	mov	x23, x0
  108664:	b9007bfc 	str	w28, [sp, #120]
  108668:	8b3c4c7c 	add	x28, x3, w28, uxtw #3
  10866c:	9ad322b5 	lsl	x21, x21, x19
  108670:	aa3503e1 	mvn	x1, x21
  108674:	f9003be1 	str	x1, [sp, #112]
  108678:	b9007fe4 	str	w4, [sp, #124]
  10867c:	294f0be1 	ldp	w1, w2, [sp, #120]
  108680:	6b02003f 	cmp	w1, w2
  108684:	54000382 	b.cs	1086f4 <xlat_tables_map_region+0x104>  // b.hs, b.nlast
  108688:	a9401722 	ldp	x2, x5, [x25]
  10868c:	8b160018 	add	x24, x0, x22
  108690:	f9400b21 	ldr	x1, [x25, #16]
  108694:	d1000715 	sub	x21, x24, #0x1
  108698:	f9400383 	ldr	x3, [x28]
  10869c:	8b0100a1 	add	x1, x5, x1
  1086a0:	eb1700bf 	cmp	x5, x23
  1086a4:	d1000421 	sub	x1, x1, #0x1
  1086a8:	12000464 	and	w4, w3, #0x3
  1086ac:	540006c8 	b.hi	108784 <xlat_tables_map_region+0x194>  // b.pmore
  1086b0:	eb15003f 	cmp	x1, x21
  1086b4:	54000683 	b.cc	108784 <xlat_tables_map_region+0x194>  // b.lo, b.ul, b.last
  1086b8:	cb050042 	sub	x2, x2, x5
  1086bc:	8b000042 	add	x2, x2, x0
  1086c0:	71000e9f 	cmp	w20, #0x3
  1086c4:	540001c1 	b.ne	1086fc <xlat_tables_map_region+0x10c>  // b.any
